
exe/play-uninstrumented:     file format elf64-x86-64


Disassembly of section .init:

0000000000003928 <_init>:
    3928:	48 83 ec 08          	sub    $0x8,%rsp
    392c:	48 8b 05 95 36 23 00 	mov    0x233695(%rip),%rax        # 236fc8 <__gmon_start__>
    3933:	48 85 c0             	test   %rax,%rax
    3936:	74 02                	je     393a <_init+0x12>
    3938:	ff d0                	callq  *%rax
    393a:	48 83 c4 08          	add    $0x8,%rsp
    393e:	c3                   	retq   

Disassembly of section .plt:

0000000000003940 <.plt>:
    3940:	ff 35 c2 33 23 00    	pushq  0x2333c2(%rip)        # 236d08 <_GLOBAL_OFFSET_TABLE_+0x8>
    3946:	ff 25 c4 33 23 00    	jmpq   *0x2333c4(%rip)        # 236d10 <_GLOBAL_OFFSET_TABLE_+0x10>
    394c:	0f 1f 40 00          	nopl   0x0(%rax)

0000000000003950 <getenv@plt>:
    3950:	ff 25 c2 33 23 00    	jmpq   *0x2333c2(%rip)        # 236d18 <getenv@GLIBC_2.2.5>
    3956:	68 00 00 00 00       	pushq  $0x0
    395b:	e9 e0 ff ff ff       	jmpq   3940 <.plt>

0000000000003960 <dl_iterate_phdr@plt>:
    3960:	ff 25 ba 33 23 00    	jmpq   *0x2333ba(%rip)        # 236d20 <dl_iterate_phdr@GLIBC_2.2.5>
    3966:	68 01 00 00 00       	pushq  $0x1
    396b:	e9 d0 ff ff ff       	jmpq   3940 <.plt>

0000000000003970 <__snprintf_chk@plt>:
    3970:	ff 25 b2 33 23 00    	jmpq   *0x2333b2(%rip)        # 236d28 <__snprintf_chk@GLIBC_2.3.4>
    3976:	68 02 00 00 00       	pushq  $0x2
    397b:	e9 c0 ff ff ff       	jmpq   3940 <.plt>

0000000000003980 <free@plt>:
    3980:	ff 25 aa 33 23 00    	jmpq   *0x2333aa(%rip)        # 236d30 <free@GLIBC_2.2.5>
    3986:	68 03 00 00 00       	pushq  $0x3
    398b:	e9 b0 ff ff ff       	jmpq   3940 <.plt>

0000000000003990 <_Unwind_FindEnclosingFunction@plt>:
    3990:	ff 25 a2 33 23 00    	jmpq   *0x2333a2(%rip)        # 236d38 <_Unwind_FindEnclosingFunction@GCC_3.3>
    3996:	68 04 00 00 00       	pushq  $0x4
    399b:	e9 a0 ff ff ff       	jmpq   3940 <.plt>

00000000000039a0 <abort@plt>:
    39a0:	ff 25 9a 33 23 00    	jmpq   *0x23339a(%rip)        # 236d40 <abort@GLIBC_2.2.5>
    39a6:	68 05 00 00 00       	pushq  $0x5
    39ab:	e9 90 ff ff ff       	jmpq   3940 <.plt>

00000000000039b0 <_Unwind_Backtrace@plt>:
    39b0:	ff 25 92 33 23 00    	jmpq   *0x233392(%rip)        # 236d48 <_Unwind_Backtrace@GCC_3.3>
    39b6:	68 06 00 00 00       	pushq  $0x6
    39bb:	e9 80 ff ff ff       	jmpq   3940 <.plt>

00000000000039c0 <__errno_location@plt>:
    39c0:	ff 25 8a 33 23 00    	jmpq   *0x23338a(%rip)        # 236d50 <__errno_location@GLIBC_2.2.5>
    39c6:	68 07 00 00 00       	pushq  $0x7
    39cb:	e9 70 ff ff ff       	jmpq   3940 <.plt>

00000000000039d0 <pthread_getattr_np@plt>:
    39d0:	ff 25 82 33 23 00    	jmpq   *0x233382(%rip)        # 236d58 <pthread_getattr_np@GLIBC_2.2.5>
    39d6:	68 08 00 00 00       	pushq  $0x8
    39db:	e9 60 ff ff ff       	jmpq   3940 <.plt>

00000000000039e0 <strncmp@plt>:
    39e0:	ff 25 7a 33 23 00    	jmpq   *0x23337a(%rip)        # 236d60 <strncmp@GLIBC_2.2.5>
    39e6:	68 09 00 00 00       	pushq  $0x9
    39eb:	e9 50 ff ff ff       	jmpq   3940 <.plt>

00000000000039f0 <sigaction@plt>:
    39f0:	ff 25 72 33 23 00    	jmpq   *0x233372(%rip)        # 236d68 <sigaction@GLIBC_2.2.5>
    39f6:	68 0a 00 00 00       	pushq  $0xa
    39fb:	e9 40 ff ff ff       	jmpq   3940 <.plt>

0000000000003a00 <__xpg_strerror_r@plt>:
    3a00:	ff 25 6a 33 23 00    	jmpq   *0x23336a(%rip)        # 236d70 <__xpg_strerror_r@GLIBC_2.3.4>
    3a06:	68 0b 00 00 00       	pushq  $0xb
    3a0b:	e9 30 ff ff ff       	jmpq   3940 <.plt>

0000000000003a10 <_Unwind_GetRegionStart@plt>:
    3a10:	ff 25 62 33 23 00    	jmpq   *0x233362(%rip)        # 236d78 <_Unwind_GetRegionStart@GCC_3.0>
    3a16:	68 0c 00 00 00       	pushq  $0xc
    3a1b:	e9 20 ff ff ff       	jmpq   3940 <.plt>

0000000000003a20 <write@plt>:
    3a20:	ff 25 5a 33 23 00    	jmpq   *0x23335a(%rip)        # 236d80 <write@GLIBC_2.2.5>
    3a26:	68 0d 00 00 00       	pushq  $0xd
    3a2b:	e9 10 ff ff ff       	jmpq   3940 <.plt>

0000000000003a30 <getpid@plt>:
    3a30:	ff 25 52 33 23 00    	jmpq   *0x233352(%rip)        # 236d88 <getpid@GLIBC_2.2.5>
    3a36:	68 0e 00 00 00       	pushq  $0xe
    3a3b:	e9 00 ff ff ff       	jmpq   3940 <.plt>

0000000000003a40 <_Unwind_GetTextRelBase@plt>:
    3a40:	ff 25 4a 33 23 00    	jmpq   *0x23334a(%rip)        # 236d90 <_Unwind_GetTextRelBase@GCC_3.0>
    3a46:	68 0f 00 00 00       	pushq  $0xf
    3a4b:	e9 f0 fe ff ff       	jmpq   3940 <.plt>

0000000000003a50 <_Unwind_RaiseException@plt>:
    3a50:	ff 25 42 33 23 00    	jmpq   *0x233342(%rip)        # 236d98 <_Unwind_RaiseException@GCC_3.0>
    3a56:	68 10 00 00 00       	pushq  $0x10
    3a5b:	e9 e0 fe ff ff       	jmpq   3940 <.plt>

0000000000003a60 <pthread_cond_wait@plt>:
    3a60:	ff 25 3a 33 23 00    	jmpq   *0x23333a(%rip)        # 236da0 <pthread_cond_wait@GLIBC_2.3.2>
    3a66:	68 11 00 00 00       	pushq  $0x11
    3a6b:	e9 d0 fe ff ff       	jmpq   3940 <.plt>

0000000000003a70 <strlen@plt>:
    3a70:	ff 25 32 33 23 00    	jmpq   *0x233332(%rip)        # 236da8 <strlen@GLIBC_2.2.5>
    3a76:	68 12 00 00 00       	pushq  $0x12
    3a7b:	e9 c0 fe ff ff       	jmpq   3940 <.plt>

0000000000003a80 <pthread_mutexattr_destroy@plt>:
    3a80:	ff 25 2a 33 23 00    	jmpq   *0x23332a(%rip)        # 236db0 <pthread_mutexattr_destroy@GLIBC_2.2.5>
    3a86:	68 13 00 00 00       	pushq  $0x13
    3a8b:	e9 b0 fe ff ff       	jmpq   3940 <.plt>

0000000000003a90 <__stack_chk_fail@plt>:
    3a90:	ff 25 22 33 23 00    	jmpq   *0x233322(%rip)        # 236db8 <__stack_chk_fail@GLIBC_2.4>
    3a96:	68 14 00 00 00       	pushq  $0x14
    3a9b:	e9 a0 fe ff ff       	jmpq   3940 <.plt>

0000000000003aa0 <mmap@plt>:
    3aa0:	ff 25 1a 33 23 00    	jmpq   *0x23331a(%rip)        # 236dc0 <mmap@GLIBC_2.2.5>
    3aa6:	68 15 00 00 00       	pushq  $0x15
    3aab:	e9 90 fe ff ff       	jmpq   3940 <.plt>

0000000000003ab0 <pthread_setspecific@plt>:
    3ab0:	ff 25 12 33 23 00    	jmpq   *0x233312(%rip)        # 236dc8 <pthread_setspecific@GLIBC_2.2.5>
    3ab6:	68 16 00 00 00       	pushq  $0x16
    3abb:	e9 80 fe ff ff       	jmpq   3940 <.plt>

0000000000003ac0 <pthread_mutex_destroy@plt>:
    3ac0:	ff 25 0a 33 23 00    	jmpq   *0x23330a(%rip)        # 236dd0 <pthread_mutex_destroy@GLIBC_2.2.5>
    3ac6:	68 17 00 00 00       	pushq  $0x17
    3acb:	e9 70 fe ff ff       	jmpq   3940 <.plt>

0000000000003ad0 <pthread_mutexattr_init@plt>:
    3ad0:	ff 25 02 33 23 00    	jmpq   *0x233302(%rip)        # 236dd8 <pthread_mutexattr_init@GLIBC_2.2.5>
    3ad6:	68 18 00 00 00       	pushq  $0x18
    3adb:	e9 60 fe ff ff       	jmpq   3940 <.plt>

0000000000003ae0 <nanosleep@plt>:
    3ae0:	ff 25 fa 32 23 00    	jmpq   *0x2332fa(%rip)        # 236de0 <nanosleep@GLIBC_2.2.5>
    3ae6:	68 19 00 00 00       	pushq  $0x19
    3aeb:	e9 50 fe ff ff       	jmpq   3940 <.plt>

0000000000003af0 <strrchr@plt>:
    3af0:	ff 25 f2 32 23 00    	jmpq   *0x2332f2(%rip)        # 236de8 <strrchr@GLIBC_2.2.5>
    3af6:	68 1a 00 00 00       	pushq  $0x1a
    3afb:	e9 40 fe ff ff       	jmpq   3940 <.plt>

0000000000003b00 <lseek@plt>:
    3b00:	ff 25 ea 32 23 00    	jmpq   *0x2332ea(%rip)        # 236df0 <lseek@GLIBC_2.2.5>
    3b06:	68 1b 00 00 00       	pushq  $0x1b
    3b0b:	e9 30 fe ff ff       	jmpq   3940 <.plt>

0000000000003b10 <dladdr@plt>:
    3b10:	ff 25 e2 32 23 00    	jmpq   *0x2332e2(%rip)        # 236df8 <dladdr@GLIBC_2.2.5>
    3b16:	68 1c 00 00 00       	pushq  $0x1c
    3b1b:	e9 20 fe ff ff       	jmpq   3940 <.plt>

0000000000003b20 <memset@plt>:
    3b20:	ff 25 da 32 23 00    	jmpq   *0x2332da(%rip)        # 236e00 <memset@GLIBC_2.2.5>
    3b26:	68 1d 00 00 00       	pushq  $0x1d
    3b2b:	e9 10 fe ff ff       	jmpq   3940 <.plt>

0000000000003b30 <pthread_condattr_destroy@plt>:
    3b30:	ff 25 d2 32 23 00    	jmpq   *0x2332d2(%rip)        # 236e08 <pthread_condattr_destroy@GLIBC_2.2.5>
    3b36:	68 1e 00 00 00       	pushq  $0x1e
    3b3b:	e9 00 fe ff ff       	jmpq   3940 <.plt>

0000000000003b40 <getcwd@plt>:
    3b40:	ff 25 ca 32 23 00    	jmpq   *0x2332ca(%rip)        # 236e10 <getcwd@GLIBC_2.2.5>
    3b46:	68 1f 00 00 00       	pushq  $0x1f
    3b4b:	e9 f0 fd ff ff       	jmpq   3940 <.plt>

0000000000003b50 <_Unwind_GetIPInfo@plt>:
    3b50:	ff 25 c2 32 23 00    	jmpq   *0x2332c2(%rip)        # 236e18 <_Unwind_GetIPInfo@GCC_4.2.0>
    3b56:	68 20 00 00 00       	pushq  $0x20
    3b5b:	e9 e0 fd ff ff       	jmpq   3940 <.plt>

0000000000003b60 <close@plt>:
    3b60:	ff 25 ba 32 23 00    	jmpq   *0x2332ba(%rip)        # 236e20 <close@GLIBC_2.2.5>
    3b66:	68 21 00 00 00       	pushq  $0x21
    3b6b:	e9 d0 fd ff ff       	jmpq   3940 <.plt>

0000000000003b70 <pthread_attr_getstack@plt>:
    3b70:	ff 25 b2 32 23 00    	jmpq   *0x2332b2(%rip)        # 236e28 <pthread_attr_getstack@GLIBC_2.2.5>
    3b76:	68 22 00 00 00       	pushq  $0x22
    3b7b:	e9 c0 fd ff ff       	jmpq   3940 <.plt>

0000000000003b80 <__register_atfork@plt>:
    3b80:	ff 25 aa 32 23 00    	jmpq   *0x2332aa(%rip)        # 236e30 <__register_atfork@GLIBC_2.3.2>
    3b86:	68 23 00 00 00       	pushq  $0x23
    3b8b:	e9 b0 fd ff ff       	jmpq   3940 <.plt>

0000000000003b90 <sched_yield@plt>:
    3b90:	ff 25 a2 32 23 00    	jmpq   *0x2332a2(%rip)        # 236e38 <sched_yield@GLIBC_2.2.5>
    3b96:	68 24 00 00 00       	pushq  $0x24
    3b9b:	e9 a0 fd ff ff       	jmpq   3940 <.plt>

0000000000003ba0 <_Unwind_GetLanguageSpecificData@plt>:
    3ba0:	ff 25 9a 32 23 00    	jmpq   *0x23329a(%rip)        # 236e40 <_Unwind_GetLanguageSpecificData@GCC_3.0>
    3ba6:	68 25 00 00 00       	pushq  $0x25
    3bab:	e9 90 fd ff ff       	jmpq   3940 <.plt>

0000000000003bb0 <memchr@plt>:
    3bb0:	ff 25 92 32 23 00    	jmpq   *0x233292(%rip)        # 236e48 <memchr@GLIBC_2.2.5>
    3bb6:	68 26 00 00 00       	pushq  $0x26
    3bbb:	e9 80 fd ff ff       	jmpq   3940 <.plt>

0000000000003bc0 <read@plt>:
    3bc0:	ff 25 8a 32 23 00    	jmpq   *0x23328a(%rip)        # 236e50 <read@GLIBC_2.2.5>
    3bc6:	68 27 00 00 00       	pushq  $0x27
    3bcb:	e9 70 fd ff ff       	jmpq   3940 <.plt>

0000000000003bd0 <memcmp@plt>:
    3bd0:	ff 25 82 32 23 00    	jmpq   *0x233282(%rip)        # 236e58 <memcmp@GLIBC_2.2.5>
    3bd6:	68 28 00 00 00       	pushq  $0x28
    3bdb:	e9 60 fd ff ff       	jmpq   3940 <.plt>

0000000000003be0 <pthread_attr_init@plt>:
    3be0:	ff 25 7a 32 23 00    	jmpq   *0x23327a(%rip)        # 236e60 <pthread_attr_init@GLIBC_2.2.5>
    3be6:	68 29 00 00 00       	pushq  $0x29
    3beb:	e9 50 fd ff ff       	jmpq   3940 <.plt>

0000000000003bf0 <sbrk@plt>:
    3bf0:	ff 25 72 32 23 00    	jmpq   *0x233272(%rip)        # 236e68 <sbrk@GLIBC_2.2.5>
    3bf6:	68 2a 00 00 00       	pushq  $0x2a
    3bfb:	e9 40 fd ff ff       	jmpq   3940 <.plt>

0000000000003c00 <__tls_get_addr@plt>:
    3c00:	ff 25 6a 32 23 00    	jmpq   *0x23326a(%rip)        # 236e70 <__tls_get_addr@GLIBC_2.3>
    3c06:	68 2b 00 00 00       	pushq  $0x2b
    3c0b:	e9 30 fd ff ff       	jmpq   3940 <.plt>

0000000000003c10 <pthread_cond_signal@plt>:
    3c10:	ff 25 62 32 23 00    	jmpq   *0x233262(%rip)        # 236e78 <pthread_cond_signal@GLIBC_2.3.2>
    3c16:	68 2c 00 00 00       	pushq  $0x2c
    3c1b:	e9 20 fd ff ff       	jmpq   3940 <.plt>

0000000000003c20 <pthread_rwlock_rdlock@plt>:
    3c20:	ff 25 5a 32 23 00    	jmpq   *0x23325a(%rip)        # 236e80 <pthread_rwlock_rdlock@GLIBC_2.2.5>
    3c26:	68 2d 00 00 00       	pushq  $0x2d
    3c2b:	e9 10 fd ff ff       	jmpq   3940 <.plt>

0000000000003c30 <strcmp@plt>:
    3c30:	ff 25 52 32 23 00    	jmpq   *0x233252(%rip)        # 236e88 <strcmp@GLIBC_2.2.5>
    3c36:	68 2e 00 00 00       	pushq  $0x2e
    3c3b:	e9 00 fd ff ff       	jmpq   3940 <.plt>

0000000000003c40 <signal@plt>:
    3c40:	ff 25 4a 32 23 00    	jmpq   *0x23324a(%rip)        # 236e90 <signal@GLIBC_2.2.5>
    3c46:	68 2f 00 00 00       	pushq  $0x2f
    3c4b:	e9 f0 fc ff ff       	jmpq   3940 <.plt>

0000000000003c50 <strtol@plt>:
    3c50:	ff 25 42 32 23 00    	jmpq   *0x233242(%rip)        # 236e98 <strtol@GLIBC_2.2.5>
    3c56:	68 30 00 00 00       	pushq  $0x30
    3c5b:	e9 e0 fc ff ff       	jmpq   3940 <.plt>

0000000000003c60 <memcpy@plt>:
    3c60:	ff 25 3a 32 23 00    	jmpq   *0x23323a(%rip)        # 236ea0 <memcpy@GLIBC_2.14>
    3c66:	68 31 00 00 00       	pushq  $0x31
    3c6b:	e9 d0 fc ff ff       	jmpq   3940 <.plt>

0000000000003c70 <pthread_cond_init@plt>:
    3c70:	ff 25 32 32 23 00    	jmpq   *0x233232(%rip)        # 236ea8 <pthread_cond_init@GLIBC_2.3.2>
    3c76:	68 32 00 00 00       	pushq  $0x32
    3c7b:	e9 c0 fc ff ff       	jmpq   3940 <.plt>

0000000000003c80 <pthread_getspecific@plt>:
    3c80:	ff 25 2a 32 23 00    	jmpq   *0x23322a(%rip)        # 236eb0 <pthread_getspecific@GLIBC_2.2.5>
    3c86:	68 33 00 00 00       	pushq  $0x33
    3c8b:	e9 b0 fc ff ff       	jmpq   3940 <.plt>

0000000000003c90 <pthread_mutex_unlock@plt>:
    3c90:	ff 25 22 32 23 00    	jmpq   *0x233222(%rip)        # 236eb8 <pthread_mutex_unlock@GLIBC_2.2.5>
    3c96:	68 34 00 00 00       	pushq  $0x34
    3c9b:	e9 a0 fc ff ff       	jmpq   3940 <.plt>

0000000000003ca0 <pthread_mutexattr_settype@plt>:
    3ca0:	ff 25 1a 32 23 00    	jmpq   *0x23321a(%rip)        # 236ec0 <pthread_mutexattr_settype@GLIBC_2.2.5>
    3ca6:	68 35 00 00 00       	pushq  $0x35
    3cab:	e9 90 fc ff ff       	jmpq   3940 <.plt>

0000000000003cb0 <malloc@plt>:
    3cb0:	ff 25 12 32 23 00    	jmpq   *0x233212(%rip)        # 236ec8 <malloc@GLIBC_2.2.5>
    3cb6:	68 36 00 00 00       	pushq  $0x36
    3cbb:	e9 80 fc ff ff       	jmpq   3940 <.plt>

0000000000003cc0 <__fxstat@plt>:
    3cc0:	ff 25 0a 32 23 00    	jmpq   *0x23320a(%rip)        # 236ed0 <__fxstat@GLIBC_2.2.5>
    3cc6:	68 37 00 00 00       	pushq  $0x37
    3ccb:	e9 70 fc ff ff       	jmpq   3940 <.plt>

0000000000003cd0 <pthread_rwlock_unlock@plt>:
    3cd0:	ff 25 02 32 23 00    	jmpq   *0x233202(%rip)        # 236ed8 <pthread_rwlock_unlock@GLIBC_2.2.5>
    3cd6:	68 38 00 00 00       	pushq  $0x38
    3cdb:	e9 60 fc ff ff       	jmpq   3940 <.plt>

0000000000003ce0 <pthread_condattr_setclock@plt>:
    3ce0:	ff 25 fa 31 23 00    	jmpq   *0x2331fa(%rip)        # 236ee0 <pthread_condattr_setclock@GLIBC_2.3.3>
    3ce6:	68 39 00 00 00       	pushq  $0x39
    3ceb:	e9 50 fc ff ff       	jmpq   3940 <.plt>

0000000000003cf0 <mremap@plt>:
    3cf0:	ff 25 f2 31 23 00    	jmpq   *0x2331f2(%rip)        # 236ee8 <mremap@GLIBC_2.2.5>
    3cf6:	68 3a 00 00 00       	pushq  $0x3a
    3cfb:	e9 40 fc ff ff       	jmpq   3940 <.plt>

0000000000003d00 <realloc@plt>:
    3d00:	ff 25 ea 31 23 00    	jmpq   *0x2331ea(%rip)        # 236ef0 <realloc@GLIBC_2.2.5>
    3d06:	68 3b 00 00 00       	pushq  $0x3b
    3d0b:	e9 30 fc ff ff       	jmpq   3940 <.plt>

0000000000003d10 <munmap@plt>:
    3d10:	ff 25 e2 31 23 00    	jmpq   *0x2331e2(%rip)        # 236ef8 <munmap@GLIBC_2.2.5>
    3d16:	68 3c 00 00 00       	pushq  $0x3c
    3d1b:	e9 20 fc ff ff       	jmpq   3940 <.plt>

0000000000003d20 <__printf_chk@plt>:
    3d20:	ff 25 da 31 23 00    	jmpq   *0x2331da(%rip)        # 236f00 <__printf_chk@GLIBC_2.3.4>
    3d26:	68 3d 00 00 00       	pushq  $0x3d
    3d2b:	e9 10 fc ff ff       	jmpq   3940 <.plt>

0000000000003d30 <pthread_key_create@plt>:
    3d30:	ff 25 d2 31 23 00    	jmpq   *0x2331d2(%rip)        # 236f08 <pthread_key_create@GLIBC_2.2.5>
    3d36:	68 3e 00 00 00       	pushq  $0x3e
    3d3b:	e9 00 fc ff ff       	jmpq   3940 <.plt>

0000000000003d40 <_Unwind_GetDataRelBase@plt>:
    3d40:	ff 25 ca 31 23 00    	jmpq   *0x2331ca(%rip)        # 236f10 <_Unwind_GetDataRelBase@GCC_3.0>
    3d46:	68 3f 00 00 00       	pushq  $0x3f
    3d4b:	e9 f0 fb ff ff       	jmpq   3940 <.plt>

0000000000003d50 <pthread_condattr_init@plt>:
    3d50:	ff 25 c2 31 23 00    	jmpq   *0x2331c2(%rip)        # 236f18 <pthread_condattr_init@GLIBC_2.2.5>
    3d56:	68 40 00 00 00       	pushq  $0x40
    3d5b:	e9 e0 fb ff ff       	jmpq   3940 <.plt>

0000000000003d60 <_Unwind_SetGR@plt>:
    3d60:	ff 25 ba 31 23 00    	jmpq   *0x2331ba(%rip)        # 236f20 <_Unwind_SetGR@GCC_3.0>
    3d66:	68 41 00 00 00       	pushq  $0x41
    3d6b:	e9 d0 fb ff ff       	jmpq   3940 <.plt>

0000000000003d70 <memmove@plt>:
    3d70:	ff 25 b2 31 23 00    	jmpq   *0x2331b2(%rip)        # 236f28 <memmove@GLIBC_2.2.5>
    3d76:	68 42 00 00 00       	pushq  $0x42
    3d7b:	e9 c0 fb ff ff       	jmpq   3940 <.plt>

0000000000003d80 <pthread_self@plt>:
    3d80:	ff 25 aa 31 23 00    	jmpq   *0x2331aa(%rip)        # 236f30 <pthread_self@GLIBC_2.2.5>
    3d86:	68 43 00 00 00       	pushq  $0x43
    3d8b:	e9 b0 fb ff ff       	jmpq   3940 <.plt>

0000000000003d90 <memrchr@plt>:
    3d90:	ff 25 a2 31 23 00    	jmpq   *0x2331a2(%rip)        # 236f38 <memrchr@GLIBC_2.2.5>
    3d96:	68 44 00 00 00       	pushq  $0x44
    3d9b:	e9 a0 fb ff ff       	jmpq   3940 <.plt>

0000000000003da0 <pthread_cond_destroy@plt>:
    3da0:	ff 25 9a 31 23 00    	jmpq   *0x23319a(%rip)        # 236f40 <pthread_cond_destroy@GLIBC_2.3.2>
    3da6:	68 45 00 00 00       	pushq  $0x45
    3dab:	e9 90 fb ff ff       	jmpq   3940 <.plt>

0000000000003db0 <mprotect@plt>:
    3db0:	ff 25 92 31 23 00    	jmpq   *0x233192(%rip)        # 236f48 <mprotect@GLIBC_2.2.5>
    3db6:	68 46 00 00 00       	pushq  $0x46
    3dbb:	e9 80 fb ff ff       	jmpq   3940 <.plt>

0000000000003dc0 <open@plt>:
    3dc0:	ff 25 8a 31 23 00    	jmpq   *0x23318a(%rip)        # 236f50 <open@GLIBC_2.2.5>
    3dc6:	68 47 00 00 00       	pushq  $0x47
    3dcb:	e9 70 fb ff ff       	jmpq   3940 <.plt>

0000000000003dd0 <sysconf@plt>:
    3dd0:	ff 25 82 31 23 00    	jmpq   *0x233182(%rip)        # 236f58 <sysconf@GLIBC_2.2.5>
    3dd6:	68 48 00 00 00       	pushq  $0x48
    3ddb:	e9 60 fb ff ff       	jmpq   3940 <.plt>

0000000000003de0 <pthread_attr_destroy@plt>:
    3de0:	ff 25 7a 31 23 00    	jmpq   *0x23317a(%rip)        # 236f60 <pthread_attr_destroy@GLIBC_2.2.5>
    3de6:	68 49 00 00 00       	pushq  $0x49
    3deb:	e9 50 fb ff ff       	jmpq   3940 <.plt>

0000000000003df0 <pthread_key_delete@plt>:
    3df0:	ff 25 72 31 23 00    	jmpq   *0x233172(%rip)        # 236f68 <pthread_key_delete@GLIBC_2.2.5>
    3df6:	68 4a 00 00 00       	pushq  $0x4a
    3dfb:	e9 40 fb ff ff       	jmpq   3940 <.plt>

0000000000003e00 <fwrite@plt>:
    3e00:	ff 25 6a 31 23 00    	jmpq   *0x23316a(%rip)        # 236f70 <fwrite@GLIBC_2.2.5>
    3e06:	68 4b 00 00 00       	pushq  $0x4b
    3e0b:	e9 30 fb ff ff       	jmpq   3940 <.plt>

0000000000003e10 <__fprintf_chk@plt>:
    3e10:	ff 25 62 31 23 00    	jmpq   *0x233162(%rip)        # 236f78 <__fprintf_chk@GLIBC_2.3.4>
    3e16:	68 4c 00 00 00       	pushq  $0x4c
    3e1b:	e9 20 fb ff ff       	jmpq   3940 <.plt>

0000000000003e20 <_Unwind_DeleteException@plt>:
    3e20:	ff 25 5a 31 23 00    	jmpq   *0x23315a(%rip)        # 236f80 <_Unwind_DeleteException@GCC_3.0>
    3e26:	68 4d 00 00 00       	pushq  $0x4d
    3e2b:	e9 10 fb ff ff       	jmpq   3940 <.plt>

0000000000003e30 <sigaltstack@plt>:
    3e30:	ff 25 52 31 23 00    	jmpq   *0x233152(%rip)        # 236f88 <sigaltstack@GLIBC_2.2.5>
    3e36:	68 4e 00 00 00       	pushq  $0x4e
    3e3b:	e9 00 fb ff ff       	jmpq   3940 <.plt>

0000000000003e40 <_Unwind_Resume@plt>:
    3e40:	ff 25 4a 31 23 00    	jmpq   *0x23314a(%rip)        # 236f90 <_Unwind_Resume@GCC_3.0>
    3e46:	68 4f 00 00 00       	pushq  $0x4f
    3e4b:	e9 f0 fa ff ff       	jmpq   3940 <.plt>

0000000000003e50 <pthread_mutex_init@plt>:
    3e50:	ff 25 42 31 23 00    	jmpq   *0x233142(%rip)        # 236f98 <pthread_mutex_init@GLIBC_2.2.5>
    3e56:	68 50 00 00 00       	pushq  $0x50
    3e5b:	e9 e0 fa ff ff       	jmpq   3940 <.plt>

0000000000003e60 <pthread_mutex_lock@plt>:
    3e60:	ff 25 3a 31 23 00    	jmpq   *0x23313a(%rip)        # 236fa0 <pthread_mutex_lock@GLIBC_2.2.5>
    3e66:	68 51 00 00 00       	pushq  $0x51
    3e6b:	e9 d0 fa ff ff       	jmpq   3940 <.plt>

0000000000003e70 <_Unwind_SetIP@plt>:
    3e70:	ff 25 32 31 23 00    	jmpq   *0x233132(%rip)        # 236fa8 <_Unwind_SetIP@GCC_3.0>
    3e76:	68 52 00 00 00       	pushq  $0x52
    3e7b:	e9 c0 fa ff ff       	jmpq   3940 <.plt>

Disassembly of section .plt.got:

0000000000003e80 <__cxa_thread_atexit_impl@plt>:
    3e80:	ff 25 32 31 23 00    	jmpq   *0x233132(%rip)        # 236fb8 <__cxa_thread_atexit_impl@GLIBC_2.18>
    3e86:	66 90                	xchg   %ax,%ax

0000000000003e88 <__cxa_finalize@plt>:
    3e88:	ff 25 4a 31 23 00    	jmpq   *0x23314a(%rip)        # 236fd8 <__cxa_finalize@GLIBC_2.2.5>
    3e8e:	66 90                	xchg   %ax,%ax

Disassembly of section .text:

0000000000003e90 <elf_try_debugfile>:
    3e90:	41 57                	push   %r15
    3e92:	41 56                	push   %r14
    3e94:	41 55                	push   %r13
    3e96:	41 54                	push   %r12
    3e98:	4e 8d 24 02          	lea    (%rdx,%r8,1),%r12
    3e9c:	55                   	push   %rbp
    3e9d:	53                   	push   %rbx
    3e9e:	48 83 cd ff          	or     $0xffffffffffffffff,%rbp
    3ea2:	48 83 ec 58          	sub    $0x58,%rsp
    3ea6:	64 48 8b 04 25 28 00 	mov    %fs:0x28,%rax
    3ead:	00 00 
    3eaf:	48 89 44 24 48       	mov    %rax,0x48(%rsp)
    3eb4:	31 c0                	xor    %eax,%eax
    3eb6:	48 89 7c 24 08       	mov    %rdi,0x8(%rsp)
    3ebb:	48 89 74 24 10       	mov    %rsi,0x10(%rsp)
    3ec0:	4c 89 cf             	mov    %r9,%rdi
    3ec3:	48 89 4c 24 18       	mov    %rcx,0x18(%rsp)
    3ec8:	4c 89 4c 24 38       	mov    %r9,0x38(%rsp)
    3ecd:	48 89 e9             	mov    %rbp,%rcx
    3ed0:	f2 ae                	repnz scas %es:(%rdi),%al
    3ed2:	4c 8b ac 24 90 00 00 	mov    0x90(%rsp),%r13
    3ed9:	00 
    3eda:	4c 8b b4 24 98 00 00 	mov    0x98(%rsp),%r14
    3ee1:	00 
    3ee2:	48 89 c8             	mov    %rcx,%rax
    3ee5:	48 8b 7c 24 08       	mov    0x8(%rsp),%rdi
    3eea:	48 89 54 24 28       	mov    %rdx,0x28(%rsp)
    3eef:	48 f7 d0             	not    %rax
    3ef2:	4c 89 44 24 30       	mov    %r8,0x30(%rsp)
    3ef7:	48 01 e8             	add    %rbp,%rax
    3efa:	4c 89 f1             	mov    %r14,%rcx
    3efd:	4c 89 ea             	mov    %r13,%rdx
    3f00:	4d 8d 1c 04          	lea    (%r12,%rax,1),%r11
    3f04:	48 89 04 24          	mov    %rax,(%rsp)
    3f08:	4d 8d 7b 01          	lea    0x1(%r11),%r15
    3f0c:	4c 89 5c 24 20       	mov    %r11,0x20(%rsp)
    3f11:	4c 89 fe             	mov    %r15,%rsi
    3f14:	e8 b7 28 01 00       	callq  167d0 <backtrace_alloc>
    3f19:	48 85 c0             	test   %rax,%rax
    3f1c:	74 6d                	je     3f8b <elf_try_debugfile+0xfb>
    3f1e:	4c 8b 54 24 28       	mov    0x28(%rsp),%r10
    3f23:	4c 8b 44 24 30       	mov    0x30(%rsp),%r8
    3f28:	48 89 c7             	mov    %rax,%rdi
    3f2b:	48 8b 74 24 10       	mov    0x10(%rsp),%rsi
    3f30:	4c 8b 4c 24 38       	mov    0x38(%rsp),%r9
    3f35:	49 01 c4             	add    %rax,%r12
    3f38:	4c 8b 5c 24 20       	mov    0x20(%rsp),%r11
    3f3d:	4c 89 f2             	mov    %r14,%rdx
    3f40:	48 89 c3             	mov    %rax,%rbx
    3f43:	4c 89 d1             	mov    %r10,%rcx
    3f46:	f3 a4                	rep movsb %ds:(%rsi),%es:(%rdi)
    3f48:	4c 89 c1             	mov    %r8,%rcx
    3f4b:	48 8b 74 24 18       	mov    0x18(%rsp),%rsi
    3f50:	f3 a4                	rep movsb %ds:(%rsi),%es:(%rdi)
    3f52:	4c 89 ce             	mov    %r9,%rsi
    3f55:	48 8b 0c 24          	mov    (%rsp),%rcx
    3f59:	4c 89 e7             	mov    %r12,%rdi
    3f5c:	f3 a4                	rep movsb %ds:(%rsi),%es:(%rdi)
    3f5e:	48 8d 4c 24 44       	lea    0x44(%rsp),%rcx
    3f63:	4c 89 ee             	mov    %r13,%rsi
    3f66:	48 89 c7             	mov    %rax,%rdi
    3f69:	42 c6 04 18 00       	movb   $0x0,(%rax,%r11,1)
    3f6e:	e8 6d 85 00 00       	callq  c4e0 <backtrace_open>
    3f73:	48 8b 7c 24 08       	mov    0x8(%rsp),%rdi
    3f78:	4d 89 f0             	mov    %r14,%r8
    3f7b:	4c 89 e9             	mov    %r13,%rcx
    3f7e:	4c 89 fa             	mov    %r15,%rdx
    3f81:	48 89 de             	mov    %rbx,%rsi
    3f84:	89 c5                	mov    %eax,%ebp
    3f86:	e8 95 28 01 00       	callq  16820 <backtrace_free>
    3f8b:	48 8b 54 24 48       	mov    0x48(%rsp),%rdx
    3f90:	64 48 33 14 25 28 00 	xor    %fs:0x28,%rdx
    3f97:	00 00 
    3f99:	89 e8                	mov    %ebp,%eax
    3f9b:	74 05                	je     3fa2 <elf_try_debugfile+0x112>
    3f9d:	e8 ee fa ff ff       	callq  3a90 <__stack_chk_fail@plt>
    3fa2:	48 83 c4 58          	add    $0x58,%rsp
    3fa6:	5b                   	pop    %rbx
    3fa7:	5d                   	pop    %rbp
    3fa8:	41 5c                	pop    %r12
    3faa:	41 5d                	pop    %r13
    3fac:	41 5e                	pop    %r14
    3fae:	41 5f                	pop    %r15
    3fb0:	c3                   	retq   
    3fb1:	66 2e 0f 1f 84 00 00 	nopw   %cs:0x0(%rax,%rax,1)
    3fb8:	00 00 00 
    3fbb:	0f 1f 44 00 00       	nopl   0x0(%rax,%rax,1)

0000000000003fc0 <_start>:
    3fc0:	31 ed                	xor    %ebp,%ebp
    3fc2:	49 89 d1             	mov    %rdx,%r9
    3fc5:	5e                   	pop    %rsi
    3fc6:	48 89 e2             	mov    %rsp,%rdx
    3fc9:	48 83 e4 f0          	and    $0xfffffffffffffff0,%rsp
    3fcd:	50                   	push   %rax
    3fce:	54                   	push   %rsp
    3fcf:	4c 8d 05 5a 37 02 00 	lea    0x2375a(%rip),%r8        # 27730 <__libc_csu_fini>
    3fd6:	48 8d 0d e3 36 02 00 	lea    0x236e3(%rip),%rcx        # 276c0 <__libc_csu_init>
    3fdd:	48 8d 3d 6c 03 00 00 	lea    0x36c(%rip),%rdi        # 4350 <main>
    3fe4:	ff 15 d6 2f 23 00    	callq  *0x232fd6(%rip)        # 236fc0 <__libc_start_main@GLIBC_2.2.5>
    3fea:	f4                   	hlt    
    3feb:	0f 1f 44 00 00       	nopl   0x0(%rax,%rax,1)

0000000000003ff0 <deregister_tm_clones>:
    3ff0:	48 8d 3d b1 30 23 00 	lea    0x2330b1(%rip),%rdi        # 2370a8 <__TMC_END__>
    3ff7:	55                   	push   %rbp
    3ff8:	48 8d 05 a9 30 23 00 	lea    0x2330a9(%rip),%rax        # 2370a8 <__TMC_END__>
    3fff:	48 39 f8             	cmp    %rdi,%rax
    4002:	48 89 e5             	mov    %rsp,%rbp
    4005:	74 19                	je     4020 <deregister_tm_clones+0x30>
    4007:	48 8b 05 a2 2f 23 00 	mov    0x232fa2(%rip),%rax        # 236fb0 <_ITM_deregisterTMCloneTable>
    400e:	48 85 c0             	test   %rax,%rax
    4011:	74 0d                	je     4020 <deregister_tm_clones+0x30>
    4013:	5d                   	pop    %rbp
    4014:	ff e0                	jmpq   *%rax
    4016:	66 2e 0f 1f 84 00 00 	nopw   %cs:0x0(%rax,%rax,1)
    401d:	00 00 00 
    4020:	5d                   	pop    %rbp
    4021:	c3                   	retq   
    4022:	0f 1f 40 00          	nopl   0x0(%rax)
    4026:	66 2e 0f 1f 84 00 00 	nopw   %cs:0x0(%rax,%rax,1)
    402d:	00 00 00 

0000000000004030 <register_tm_clones>:
    4030:	48 8d 3d 71 30 23 00 	lea    0x233071(%rip),%rdi        # 2370a8 <__TMC_END__>
    4037:	48 8d 35 6a 30 23 00 	lea    0x23306a(%rip),%rsi        # 2370a8 <__TMC_END__>
    403e:	55                   	push   %rbp
    403f:	48 29 fe             	sub    %rdi,%rsi
    4042:	48 89 e5             	mov    %rsp,%rbp
    4045:	48 c1 fe 03          	sar    $0x3,%rsi
    4049:	48 89 f0             	mov    %rsi,%rax
    404c:	48 c1 e8 3f          	shr    $0x3f,%rax
    4050:	48 01 c6             	add    %rax,%rsi
    4053:	48 d1 fe             	sar    %rsi
    4056:	74 18                	je     4070 <register_tm_clones+0x40>
    4058:	48 8b 05 71 2f 23 00 	mov    0x232f71(%rip),%rax        # 236fd0 <_ITM_registerTMCloneTable>
    405f:	48 85 c0             	test   %rax,%rax
    4062:	74 0c                	je     4070 <register_tm_clones+0x40>
    4064:	5d                   	pop    %rbp
    4065:	ff e0                	jmpq   *%rax
    4067:	66 0f 1f 84 00 00 00 	nopw   0x0(%rax,%rax,1)
    406e:	00 00 
    4070:	5d                   	pop    %rbp
    4071:	c3                   	retq   
    4072:	0f 1f 40 00          	nopl   0x0(%rax)
    4076:	66 2e 0f 1f 84 00 00 	nopw   %cs:0x0(%rax,%rax,1)
    407d:	00 00 00 

0000000000004080 <__do_global_dtors_aux>:
    4080:	80 3d 39 30 23 00 00 	cmpb   $0x0,0x233039(%rip)        # 2370c0 <completed.7697>
    4087:	75 2f                	jne    40b8 <__do_global_dtors_aux+0x38>
    4089:	48 83 3d 47 2f 23 00 	cmpq   $0x0,0x232f47(%rip)        # 236fd8 <__cxa_finalize@GLIBC_2.2.5>
    4090:	00 
    4091:	55                   	push   %rbp
    4092:	48 89 e5             	mov    %rsp,%rbp
    4095:	74 0c                	je     40a3 <__do_global_dtors_aux+0x23>
    4097:	48 8b 3d 62 2f 23 00 	mov    0x232f62(%rip),%rdi        # 237000 <__dso_handle>
    409e:	e8 e5 fd ff ff       	callq  3e88 <__cxa_finalize@plt>
    40a3:	e8 48 ff ff ff       	callq  3ff0 <deregister_tm_clones>
    40a8:	c6 05 11 30 23 00 01 	movb   $0x1,0x233011(%rip)        # 2370c0 <completed.7697>
    40af:	5d                   	pop    %rbp
    40b0:	c3                   	retq   
    40b1:	0f 1f 80 00 00 00 00 	nopl   0x0(%rax)
    40b8:	f3 c3                	repz retq 
    40ba:	66 0f 1f 44 00 00    	nopw   0x0(%rax,%rax,1)

00000000000040c0 <frame_dummy>:
    40c0:	55                   	push   %rbp
    40c1:	48 89 e5             	mov    %rsp,%rbp
    40c4:	5d                   	pop    %rbp
    40c5:	e9 66 ff ff ff       	jmpq   4030 <register_tm_clones>
    40ca:	66 0f 1f 44 00 00    	nopw   0x0(%rax,%rax,1)

00000000000040d0 <_ZN3std2rt10lang_start17h948ba1b90493c333E>:
    40d0:	48 83 ec 28          	sub    $0x28,%rsp
    40d4:	48 89 d0             	mov    %rdx,%rax
    40d7:	48 89 f1             	mov    %rsi,%rcx
    40da:	48 89 7c 24 10       	mov    %rdi,0x10(%rsp)
    40df:	48 89 74 24 18       	mov    %rsi,0x18(%rsp)
    40e4:	48 89 54 24 20       	mov    %rdx,0x20(%rsp)
    40e9:	48 89 7c 24 08       	mov    %rdi,0x8(%rsp)
    40ee:	48 8d 35 9b 0a 23 00 	lea    0x230a9b(%rip),%rsi        # 234b90 <debug_section_names+0x50>
    40f5:	48 8d 7c 24 08       	lea    0x8(%rsp),%rdi
    40fa:	48 89 ca             	mov    %rcx,%rdx
    40fd:	48 89 c1             	mov    %rax,%rcx
    4100:	e8 ab 26 00 00       	callq  67b0 <_ZN3std2rt19lang_start_internal17h6bc80da8df1b84a6E>
    4105:	48 83 c4 28          	add    $0x28,%rsp
    4109:	c3                   	retq   
    410a:	90                   	nop
    410b:	90                   	nop
    410c:	90                   	nop
    410d:	90                   	nop
    410e:	90                   	nop
    410f:	90                   	nop

0000000000004110 <_ZN4core3ptr13drop_in_place17hdfe04fcfcca0f6e8E>:
    4110:	50                   	push   %rax
    4111:	48 89 3c 24          	mov    %rdi,(%rsp)
    4115:	58                   	pop    %rax
    4116:	c3                   	retq   
    4117:	90                   	nop
    4118:	90                   	nop
    4119:	90                   	nop
    411a:	90                   	nop
    411b:	90                   	nop
    411c:	90                   	nop
    411d:	90                   	nop
    411e:	90                   	nop
    411f:	90                   	nop

0000000000004120 <_ZN3std2rt10lang_start28_$u7b$$u7b$closure$u7d$$u7d$17h4bde06813b15eb20E>:
    4120:	50                   	push   %rax
    4121:	48 89 3c 24          	mov    %rdi,(%rsp)
    4125:	ff 17                	callq  *(%rdi)
    4127:	e8 34 00 00 00       	callq  4160 <_ZN54_$LT$$LP$$RP$$u20$as$u20$std..process..Termination$GT$6report17h9c19d50775b05b2aE>
    412c:	59                   	pop    %rcx
    412d:	c3                   	retq   
    412e:	90                   	nop
    412f:	90                   	nop

0000000000004130 <_ZN4core3ops8function6FnOnce9call_once17h87bbde7f06d78145E>:
    4130:	48 83 ec 28          	sub    $0x28,%rsp
    4134:	48 89 7c 24 08       	mov    %rdi,0x8(%rsp)
    4139:	48 8d 7c 24 08       	lea    0x8(%rsp),%rdi
    413e:	e8 dd ff ff ff       	callq  4120 <_ZN3std2rt10lang_start28_$u7b$$u7b$closure$u7d$$u7d$17h4bde06813b15eb20E>
    4143:	48 83 c4 28          	add    $0x28,%rsp
    4147:	c3                   	retq   
    4148:	48 89 44 24 10       	mov    %rax,0x10(%rsp)
    414d:	89 54 24 18          	mov    %edx,0x18(%rsp)
    4151:	48 89 c7             	mov    %rax,%rdi
    4154:	e8 e7 fc ff ff       	callq  3e40 <_Unwind_Resume@plt>
    4159:	90                   	nop
    415a:	90                   	nop
    415b:	90                   	nop
    415c:	90                   	nop
    415d:	90                   	nop
    415e:	90                   	nop
    415f:	90                   	nop

0000000000004160 <_ZN54_$LT$$LP$$RP$$u20$as$u20$std..process..Termination$GT$6report17h9c19d50775b05b2aE>:
    4160:	50                   	push   %rax
    4161:	31 ff                	xor    %edi,%edi
    4163:	e8 08 00 00 00       	callq  4170 <_ZN68_$LT$std..process..ExitCode$u20$as$u20$std..process..Termination$GT$6report17h368288af69c36b92E>
    4168:	59                   	pop    %rcx
    4169:	c3                   	retq   
    416a:	90                   	nop
    416b:	90                   	nop
    416c:	90                   	nop
    416d:	90                   	nop
    416e:	90                   	nop
    416f:	90                   	nop

0000000000004170 <_ZN68_$LT$std..process..ExitCode$u20$as$u20$std..process..Termination$GT$6report17h368288af69c36b92E>:
    4170:	50                   	push   %rax
    4171:	40 88 7c 24 07       	mov    %dil,0x7(%rsp)
    4176:	48 8d 7c 24 07       	lea    0x7(%rsp),%rdi
    417b:	e8 10 00 00 00       	callq  4190 <_ZN3std3sys4unix7process14process_common8ExitCode6as_i3217hb4ff0e41dc071371E>
    4180:	59                   	pop    %rcx
    4181:	c3                   	retq   
    4182:	90                   	nop
    4183:	90                   	nop
    4184:	90                   	nop
    4185:	90                   	nop
    4186:	90                   	nop
    4187:	90                   	nop
    4188:	90                   	nop
    4189:	90                   	nop
    418a:	90                   	nop
    418b:	90                   	nop
    418c:	90                   	nop
    418d:	90                   	nop
    418e:	90                   	nop
    418f:	90                   	nop

0000000000004190 <_ZN3std3sys4unix7process14process_common8ExitCode6as_i3217hb4ff0e41dc071371E>:
    4190:	50                   	push   %rax
    4191:	48 89 3c 24          	mov    %rdi,(%rsp)
    4195:	0f b6 07             	movzbl (%rdi),%eax
    4198:	59                   	pop    %rcx
    4199:	c3                   	retq   
    419a:	90                   	nop
    419b:	90                   	nop
    419c:	90                   	nop
    419d:	90                   	nop
    419e:	90                   	nop
    419f:	90                   	nop

00000000000041a0 <__rg_alloc>:
    41a0:	48 83 ec 18          	sub    $0x18,%rsp
    41a4:	48 89 7c 24 08       	mov    %rdi,0x8(%rsp)
    41a9:	48 89 74 24 10       	mov    %rsi,0x10(%rsp)
    41ae:	e8 1d 00 00 00       	callq  41d0 <_ZN4core5alloc6Layout25from_size_align_unchecked17h5df097b65d175720E>
    41b3:	48 8d 3d 86 35 02 00 	lea    0x23586(%rip),%rdi        # 27740 <_ZN4play6GLOBAL17h6391985a871b6f5eE>
    41ba:	48 89 c6             	mov    %rax,%rsi
    41bd:	e8 ae 71 01 00       	callq  1b370 <_ZN22alloc_unsafe_ptmalloc28contents93_$LT$impl$u20$core..alloc..GlobalAlloc$u20$for$u20$alloc_unsafe_ptmalloc2..UnsafePtmalloc$GT$5alloc17h43d1d598906e34d5E>
    41c2:	48 83 c4 18          	add    $0x18,%rsp
    41c6:	c3                   	retq   
    41c7:	90                   	nop
    41c8:	90                   	nop
    41c9:	90                   	nop
    41ca:	90                   	nop
    41cb:	90                   	nop
    41cc:	90                   	nop
    41cd:	90                   	nop
    41ce:	90                   	nop
    41cf:	90                   	nop

00000000000041d0 <_ZN4core5alloc6Layout25from_size_align_unchecked17h5df097b65d175720E>:
    41d0:	53                   	push   %rbx
    41d1:	48 83 ec 20          	sub    $0x20,%rsp
    41d5:	48 89 fb             	mov    %rdi,%rbx
    41d8:	48 89 3c 24          	mov    %rdi,(%rsp)
    41dc:	48 89 74 24 08       	mov    %rsi,0x8(%rsp)
    41e1:	48 89 f7             	mov    %rsi,%rdi
    41e4:	e8 27 00 00 00       	callq  4210 <_ZN4core3num12NonZeroUsize13new_unchecked17hcb2242a68488c205E>
    41e9:	48 89 c1             	mov    %rax,%rcx
    41ec:	48 89 5c 24 10       	mov    %rbx,0x10(%rsp)
    41f1:	48 89 44 24 18       	mov    %rax,0x18(%rsp)
    41f6:	48 89 d8             	mov    %rbx,%rax
    41f9:	48 89 ca             	mov    %rcx,%rdx
    41fc:	48 83 c4 20          	add    $0x20,%rsp
    4200:	5b                   	pop    %rbx
    4201:	c3                   	retq   
    4202:	90                   	nop
    4203:	90                   	nop
    4204:	90                   	nop
    4205:	90                   	nop
    4206:	90                   	nop
    4207:	90                   	nop
    4208:	90                   	nop
    4209:	90                   	nop
    420a:	90                   	nop
    420b:	90                   	nop
    420c:	90                   	nop
    420d:	90                   	nop
    420e:	90                   	nop
    420f:	90                   	nop

0000000000004210 <_ZN4core3num12NonZeroUsize13new_unchecked17hcb2242a68488c205E>:
    4210:	48 83 ec 18          	sub    $0x18,%rsp
    4214:	48 89 3c 24          	mov    %rdi,(%rsp)
    4218:	48 89 7c 24 10       	mov    %rdi,0x10(%rsp)
    421d:	48 89 7c 24 08       	mov    %rdi,0x8(%rsp)
    4222:	48 89 f8             	mov    %rdi,%rax
    4225:	48 83 c4 18          	add    $0x18,%rsp
    4229:	c3                   	retq   
    422a:	90                   	nop
    422b:	90                   	nop
    422c:	90                   	nop
    422d:	90                   	nop
    422e:	90                   	nop
    422f:	90                   	nop

0000000000004230 <__rg_unsafe_alloc>:
    4230:	48 83 ec 18          	sub    $0x18,%rsp
    4234:	48 89 7c 24 08       	mov    %rdi,0x8(%rsp)
    4239:	48 89 74 24 10       	mov    %rsi,0x10(%rsp)
    423e:	e8 8d ff ff ff       	callq  41d0 <_ZN4core5alloc6Layout25from_size_align_unchecked17h5df097b65d175720E>
    4243:	48 8d 3d f6 34 02 00 	lea    0x234f6(%rip),%rdi        # 27740 <_ZN4play6GLOBAL17h6391985a871b6f5eE>
    424a:	48 89 c6             	mov    %rax,%rsi
    424d:	e8 3e 71 01 00       	callq  1b390 <_ZN22alloc_unsafe_ptmalloc28contents93_$LT$impl$u20$core..alloc..GlobalAlloc$u20$for$u20$alloc_unsafe_ptmalloc2..UnsafePtmalloc$GT$12unsafe_alloc17hc06cfed318c482dcE>
    4252:	48 83 c4 18          	add    $0x18,%rsp
    4256:	c3                   	retq   
    4257:	90                   	nop
    4258:	90                   	nop
    4259:	90                   	nop
    425a:	90                   	nop
    425b:	90                   	nop
    425c:	90                   	nop
    425d:	90                   	nop
    425e:	90                   	nop
    425f:	90                   	nop

0000000000004260 <__rg_dealloc>:
    4260:	53                   	push   %rbx
    4261:	48 83 ec 20          	sub    $0x20,%rsp
    4265:	48 89 fb             	mov    %rdi,%rbx
    4268:	48 89 7c 24 08       	mov    %rdi,0x8(%rsp)
    426d:	48 89 74 24 10       	mov    %rsi,0x10(%rsp)
    4272:	48 89 54 24 18       	mov    %rdx,0x18(%rsp)
    4277:	48 89 f7             	mov    %rsi,%rdi
    427a:	48 89 d6             	mov    %rdx,%rsi
    427d:	e8 4e ff ff ff       	callq  41d0 <_ZN4core5alloc6Layout25from_size_align_unchecked17h5df097b65d175720E>
    4282:	48 89 d1             	mov    %rdx,%rcx
    4285:	48 8d 3d b4 34 02 00 	lea    0x234b4(%rip),%rdi        # 27740 <_ZN4play6GLOBAL17h6391985a871b6f5eE>
    428c:	48 89 de             	mov    %rbx,%rsi
    428f:	48 89 c2             	mov    %rax,%rdx
    4292:	e8 19 71 01 00       	callq  1b3b0 <_ZN22alloc_unsafe_ptmalloc28contents93_$LT$impl$u20$core..alloc..GlobalAlloc$u20$for$u20$alloc_unsafe_ptmalloc2..UnsafePtmalloc$GT$7dealloc17h9885fffd13f5b638E>
    4297:	48 83 c4 20          	add    $0x20,%rsp
    429b:	5b                   	pop    %rbx
    429c:	c3                   	retq   
    429d:	90                   	nop
    429e:	90                   	nop
    429f:	90                   	nop

00000000000042a0 <__rg_realloc>:
    42a0:	53                   	push   %rbx
    42a1:	48 83 ec 20          	sub    $0x20,%rsp
    42a5:	48 89 fb             	mov    %rdi,%rbx
    42a8:	48 89 7c 24 08       	mov    %rdi,0x8(%rsp)
    42ad:	48 89 74 24 10       	mov    %rsi,0x10(%rsp)
    42b2:	48 89 54 24 18       	mov    %rdx,0x18(%rsp)
    42b7:	48 89 0c 24          	mov    %rcx,(%rsp)
    42bb:	48 89 f7             	mov    %rsi,%rdi
    42be:	48 89 d6             	mov    %rdx,%rsi
    42c1:	e8 0a ff ff ff       	callq  41d0 <_ZN4core5alloc6Layout25from_size_align_unchecked17h5df097b65d175720E>
    42c6:	48 89 d1             	mov    %rdx,%rcx
    42c9:	4c 8b 04 24          	mov    (%rsp),%r8
    42cd:	48 8d 3d 6c 34 02 00 	lea    0x2346c(%rip),%rdi        # 27740 <_ZN4play6GLOBAL17h6391985a871b6f5eE>
    42d4:	48 89 de             	mov    %rbx,%rsi
    42d7:	48 89 c2             	mov    %rax,%rdx
    42da:	e8 a1 71 01 00       	callq  1b480 <_ZN22alloc_unsafe_ptmalloc28contents93_$LT$impl$u20$core..alloc..GlobalAlloc$u20$for$u20$alloc_unsafe_ptmalloc2..UnsafePtmalloc$GT$7realloc17h7e60635d9601562cE>
    42df:	48 83 c4 20          	add    $0x20,%rsp
    42e3:	5b                   	pop    %rbx
    42e4:	c3                   	retq   
    42e5:	90                   	nop
    42e6:	90                   	nop
    42e7:	90                   	nop
    42e8:	90                   	nop
    42e9:	90                   	nop
    42ea:	90                   	nop
    42eb:	90                   	nop
    42ec:	90                   	nop
    42ed:	90                   	nop
    42ee:	90                   	nop
    42ef:	90                   	nop

00000000000042f0 <__rg_alloc_zeroed>:
    42f0:	48 83 ec 18          	sub    $0x18,%rsp
    42f4:	48 89 7c 24 08       	mov    %rdi,0x8(%rsp)
    42f9:	48 89 74 24 10       	mov    %rsi,0x10(%rsp)
    42fe:	e8 cd fe ff ff       	callq  41d0 <_ZN4core5alloc6Layout25from_size_align_unchecked17h5df097b65d175720E>
    4303:	48 8d 3d 36 34 02 00 	lea    0x23436(%rip),%rdi        # 27740 <_ZN4play6GLOBAL17h6391985a871b6f5eE>
    430a:	48 89 c6             	mov    %rax,%rsi
    430d:	e8 ae 70 01 00       	callq  1b3c0 <_ZN22alloc_unsafe_ptmalloc28contents93_$LT$impl$u20$core..alloc..GlobalAlloc$u20$for$u20$alloc_unsafe_ptmalloc2..UnsafePtmalloc$GT$12alloc_zeroed17h0d85b0ebdf0f684eE>
    4312:	48 83 c4 18          	add    $0x18,%rsp
    4316:	c3                   	retq   
    4317:	90                   	nop
    4318:	90                   	nop
    4319:	90                   	nop
    431a:	90                   	nop
    431b:	90                   	nop
    431c:	90                   	nop
    431d:	90                   	nop
    431e:	90                   	nop
    431f:	90                   	nop

0000000000004320 <__rg_unsafe_alloc_zeroed>:
    4320:	48 83 ec 18          	sub    $0x18,%rsp
    4324:	48 89 7c 24 08       	mov    %rdi,0x8(%rsp)
    4329:	48 89 74 24 10       	mov    %rsi,0x10(%rsp)
    432e:	e8 9d fe ff ff       	callq  41d0 <_ZN4core5alloc6Layout25from_size_align_unchecked17h5df097b65d175720E>
    4333:	48 8d 3d 06 34 02 00 	lea    0x23406(%rip),%rdi        # 27740 <_ZN4play6GLOBAL17h6391985a871b6f5eE>
    433a:	48 89 c6             	mov    %rax,%rsi
    433d:	e8 de 70 01 00       	callq  1b420 <_ZN22alloc_unsafe_ptmalloc28contents93_$LT$impl$u20$core..alloc..GlobalAlloc$u20$for$u20$alloc_unsafe_ptmalloc2..UnsafePtmalloc$GT$19unsafe_alloc_zeroed17hec61542386c6bc02E>
    4342:	48 83 c4 18          	add    $0x18,%rsp
    4346:	c3                   	retq   
    4347:	90                   	nop
    4348:	90                   	nop
    4349:	90                   	nop
    434a:	90                   	nop
    434b:	90                   	nop
    434c:	90                   	nop
    434d:	90                   	nop
    434e:	90                   	nop
    434f:	90                   	nop

0000000000004350 <main>:
    4350:	50                   	push   %rax
    4351:	48 89 f0             	mov    %rsi,%rax
    4354:	8a 0d de 7d 02 00    	mov    0x27dde(%rip),%cl        # 2c138 <__rustc_debug_gdb_scripts_section__>
    435a:	48 63 f7             	movslq %edi,%rsi
    435d:	48 8d 3d 0c 00 00 00 	lea    0xc(%rip),%rdi        # 4370 <_ZN4play4main17hc77c3aa4dbbe3cdeE>
    4364:	48 89 c2             	mov    %rax,%rdx
    4367:	e8 64 fd ff ff       	callq  40d0 <_ZN3std2rt10lang_start17h948ba1b90493c333E>
    436c:	59                   	pop    %rcx
    436d:	c3                   	retq   
    436e:	90                   	nop
    436f:	90                   	nop

0000000000004370 <_ZN4play4main17hc77c3aa4dbbe3cdeE>:
    4370:	41 56                	push   %r14
    4372:	53                   	push   %rbx
    4373:	48 81 ec f8 00 00 00 	sub    $0xf8,%rsp
    437a:	48 8d 7c 24 40       	lea    0x40(%rsp),%rdi
    437f:	be 01 00 00 00       	mov    $0x1,%esi
    4384:	e8 b7 01 00 00       	callq  4540 <_ZN33_$LT$alloc..vec..Vec$LT$T$GT$$GT$20unsafe_with_capacity17ha3f680a4b7ebfea6E>
    4389:	bf 04 00 00 00       	mov    $0x4,%edi
    438e:	be 04 00 00 00       	mov    $0x4,%esi
    4393:	e8 d8 01 00 00       	callq  4570 <_ZN5alloc5alloc15exchange_malloc17h63e0c9bfc9193931E>
    4398:	c7 00 20 00 00 00    	movl   $0x20,(%rax)
    439e:	48 89 44 24 10       	mov    %rax,0x10(%rsp)
    43a3:	4c 8d 74 24 10       	lea    0x10(%rsp),%r14
    43a8:	4c 89 74 24 78       	mov    %r14,0x78(%rsp)
    43ad:	4c 89 b4 24 80 00 00 	mov    %r14,0x80(%rsp)
    43b4:	00 
    43b5:	48 8d 35 34 02 00 00 	lea    0x234(%rip),%rsi        # 45f0 <_ZN65_$LT$alloc..boxed..Box$LT$T$GT$$u20$as$u20$core..fmt..Display$GT$3fmt17h877f2273b8fa74b1E>
    43bc:	4c 89 f7             	mov    %r14,%rdi
    43bf:	e8 4c 02 00 00       	callq  4610 <_ZN4core3fmt10ArgumentV13new17hb37c2a03f41e5eb3E>
    43c4:	48 89 44 24 58       	mov    %rax,0x58(%rsp)
    43c9:	48 89 54 24 60       	mov    %rdx,0x60(%rsp)
    43ce:	48 c7 04 24 01 00 00 	movq   $0x1,(%rsp)
    43d5:	00 
    43d6:	48 8d 35 e3 07 23 00 	lea    0x2307e3(%rip),%rsi        # 234bc0 <debug_section_names+0x80>
    43dd:	4c 8d 0d 5c 33 02 00 	lea    0x2335c(%rip),%r9        # 27740 <_ZN4play6GLOBAL17h6391985a871b6f5eE>
    43e4:	48 8d bc 24 98 00 00 	lea    0x98(%rsp),%rdi
    43eb:	00 
    43ec:	48 8d 4c 24 58       	lea    0x58(%rsp),%rcx
    43f1:	ba 02 00 00 00       	mov    $0x2,%edx
    43f6:	41 b8 01 00 00 00    	mov    $0x1,%r8d
    43fc:	e8 3f 02 00 00       	callq  4640 <_ZN4core3fmt9Arguments16new_v1_formatted17h1d83b72459772b55E>
    4401:	48 8d bc 24 98 00 00 	lea    0x98(%rsp),%rdi
    4408:	00 
    4409:	e8 f2 3b 00 00       	callq  8000 <_ZN3std2io5stdio6_print17h581d979f673f4247E>
    440e:	48 8b 5c 24 10       	mov    0x10(%rsp),%rbx
    4413:	48 8d 7c 24 40       	lea    0x40(%rsp),%rdi
    4418:	e8 e3 02 00 00       	callq  4700 <_ZN68_$LT$alloc..vec..Vec$LT$T$GT$$u20$as$u20$core..ops..deref..Deref$GT$5deref17hce5a12357a6338f8E>
    441d:	48 89 c7             	mov    %rax,%rdi
    4420:	48 89 d6             	mov    %rdx,%rsi
    4423:	e8 18 03 00 00       	callq  4740 <_ZN4core5slice29_$LT$impl$u20$$u5b$T$u5d$$GT$6as_ptr17hffa7190ba0695040E>
    4428:	48 89 df             	mov    %rbx,%rdi
    442b:	48 89 c6             	mov    %rax,%rsi
    442e:	e8 2d 03 00 00       	callq  4760 <_ZN4core3ptr33_$LT$impl$u20$$BP$const$u20$T$GT$11offset_from17h5d895e639e573c8cE>
    4433:	48 89 44 24 28       	mov    %rax,0x28(%rsp)
    4438:	48 8d 7c 24 40       	lea    0x40(%rsp),%rdi
    443d:	e8 ae 03 00 00       	callq  47f0 <_ZN71_$LT$alloc..vec..Vec$LT$T$GT$$u20$as$u20$core..ops..deref..DerefMut$GT$9deref_mut17hc288ebb429141c02E>
    4442:	48 89 c7             	mov    %rax,%rdi
    4445:	48 89 d6             	mov    %rdx,%rsi
    4448:	e8 e3 03 00 00       	callq  4830 <_ZN4core5slice29_$LT$impl$u20$$u5b$T$u5d$$GT$10as_mut_ptr17h5ba90e1e21362695E>
    444d:	48 8b 74 24 28       	mov    0x28(%rsp),%rsi
    4452:	48 89 c7             	mov    %rax,%rdi
    4455:	e8 f6 03 00 00       	callq  4850 <_ZN4core3ptr31_$LT$impl$u20$$BP$mut$u20$T$GT$6offset17h7bc7ce93a7a33c58E>
    445a:	48 89 44 24 30       	mov    %rax,0x30(%rsp)
    445f:	48 89 c7             	mov    %rax,%rdi
    4462:	e8 09 04 00 00       	callq  4870 <_ZN4core3ptr31_$LT$impl$u20$$BP$mut$u20$T$GT$7is_null17hda04940d4d5b110dE>
    4467:	48 8b 44 24 30       	mov    0x30(%rsp),%rax
    446c:	8b 08                	mov    (%rax),%ecx
    446e:	89 4c 24 3c          	mov    %ecx,0x3c(%rsp)
    4472:	c7 00 05 00 00 00    	movl   $0x5,(%rax)
    4478:	4c 89 b4 24 88 00 00 	mov    %r14,0x88(%rsp)
    447f:	00 
    4480:	4c 89 b4 24 90 00 00 	mov    %r14,0x90(%rsp)
    4487:	00 
    4488:	48 8d 35 61 01 00 00 	lea    0x161(%rip),%rsi        # 45f0 <_ZN65_$LT$alloc..boxed..Box$LT$T$GT$$u20$as$u20$core..fmt..Display$GT$3fmt17h877f2273b8fa74b1E>
    448f:	4c 89 f7             	mov    %r14,%rdi
    4492:	e8 79 01 00 00       	callq  4610 <_ZN4core3fmt10ArgumentV13new17hb37c2a03f41e5eb3E>
    4497:	48 89 44 24 68       	mov    %rax,0x68(%rsp)
    449c:	48 89 54 24 70       	mov    %rdx,0x70(%rsp)
    44a1:	48 c7 04 24 01 00 00 	movq   $0x1,(%rsp)
    44a8:	00 
    44a9:	48 8d 35 10 07 23 00 	lea    0x230710(%rip),%rsi        # 234bc0 <debug_section_names+0x80>
    44b0:	4c 8d 0d 89 32 02 00 	lea    0x23289(%rip),%r9        # 27740 <_ZN4play6GLOBAL17h6391985a871b6f5eE>
    44b7:	48 8d bc 24 c8 00 00 	lea    0xc8(%rsp),%rdi
    44be:	00 
    44bf:	48 8d 4c 24 68       	lea    0x68(%rsp),%rcx
    44c4:	ba 02 00 00 00       	mov    $0x2,%edx
    44c9:	41 b8 01 00 00 00    	mov    $0x1,%r8d
    44cf:	e8 6c 01 00 00       	callq  4640 <_ZN4core3fmt9Arguments16new_v1_formatted17h1d83b72459772b55E>
    44d4:	48 8d bc 24 c8 00 00 	lea    0xc8(%rsp),%rdi
    44db:	00 
    44dc:	e8 1f 3b 00 00       	callq  8000 <_ZN3std2io5stdio6_print17h581d979f673f4247E>
    44e1:	48 8d 7c 24 10       	lea    0x10(%rsp),%rdi
    44e6:	e8 f5 01 00 00       	callq  46e0 <_ZN4core3ptr13drop_in_place17h8658524a855bf2feE>
    44eb:	48 8d 7c 24 40       	lea    0x40(%rsp),%rdi
    44f0:	e8 ab 01 00 00       	callq  46a0 <_ZN4core3ptr13drop_in_place17h80fea2285cab8f0dE>
    44f5:	48 81 c4 f8 00 00 00 	add    $0xf8,%rsp
    44fc:	5b                   	pop    %rbx
    44fd:	41 5e                	pop    %r14
    44ff:	c3                   	retq   
    4500:	48 89 44 24 18       	mov    %rax,0x18(%rsp)
    4505:	89 54 24 20          	mov    %edx,0x20(%rsp)
    4509:	eb 13                	jmp    451e <_ZN4play4main17hc77c3aa4dbbe3cdeE+0x1ae>
    450b:	48 89 44 24 18       	mov    %rax,0x18(%rsp)
    4510:	89 54 24 20          	mov    %edx,0x20(%rsp)
    4514:	48 8d 7c 24 10       	lea    0x10(%rsp),%rdi
    4519:	e8 c2 01 00 00       	callq  46e0 <_ZN4core3ptr13drop_in_place17h8658524a855bf2feE>
    451e:	48 8d 7c 24 40       	lea    0x40(%rsp),%rdi
    4523:	e8 78 01 00 00       	callq  46a0 <_ZN4core3ptr13drop_in_place17h80fea2285cab8f0dE>
    4528:	48 8b 7c 24 18       	mov    0x18(%rsp),%rdi
    452d:	e8 0e f9 ff ff       	callq  3e40 <_Unwind_Resume@plt>
    4532:	90                   	nop
    4533:	90                   	nop
    4534:	90                   	nop
    4535:	90                   	nop
    4536:	90                   	nop
    4537:	90                   	nop
    4538:	90                   	nop
    4539:	90                   	nop
    453a:	90                   	nop
    453b:	90                   	nop
    453c:	90                   	nop
    453d:	90                   	nop
    453e:	90                   	nop
    453f:	90                   	nop

0000000000004540 <_ZN33_$LT$alloc..vec..Vec$LT$T$GT$$GT$20unsafe_with_capacity17ha3f680a4b7ebfea6E>:
    4540:	53                   	push   %rbx
    4541:	48 83 ec 10          	sub    $0x10,%rsp
    4545:	48 89 fb             	mov    %rdi,%rbx
    4548:	48 89 74 24 08       	mov    %rsi,0x8(%rsp)
    454d:	48 89 f7             	mov    %rsi,%rdi
    4550:	e8 eb 07 00 00       	callq  4d40 <_ZN40_$LT$alloc..raw_vec..RawVec$LT$T$GT$$GT$20unsafe_with_capacity17h105c44010ed56bedE>
    4555:	48 89 03             	mov    %rax,(%rbx)
    4558:	48 89 53 08          	mov    %rdx,0x8(%rbx)
    455c:	48 c7 43 10 00 00 00 	movq   $0x0,0x10(%rbx)
    4563:	00 
    4564:	48 89 d8             	mov    %rbx,%rax
    4567:	48 83 c4 10          	add    $0x10,%rsp
    456b:	5b                   	pop    %rbx
    456c:	c3                   	retq   
    456d:	90                   	nop
    456e:	90                   	nop
    456f:	90                   	nop

0000000000004570 <_ZN5alloc5alloc15exchange_malloc17h63e0c9bfc9193931E>:
    4570:	48 83 ec 38          	sub    $0x38,%rsp
    4574:	48 89 7c 24 18       	mov    %rdi,0x18(%rsp)
    4579:	48 89 74 24 08       	mov    %rsi,0x8(%rsp)
    457e:	48 85 ff             	test   %rdi,%rdi
    4581:	74 3c                	je     45bf <_ZN5alloc5alloc15exchange_malloc17h63e0c9bfc9193931E+0x4f>
    4583:	48 8b 7c 24 18       	mov    0x18(%rsp),%rdi
    4588:	48 8b 74 24 08       	mov    0x8(%rsp),%rsi
    458d:	e8 3e fc ff ff       	callq  41d0 <_ZN4core5alloc6Layout25from_size_align_unchecked17h5df097b65d175720E>
    4592:	48 89 54 24 28       	mov    %rdx,0x28(%rsp)
    4597:	48 89 44 24 20       	mov    %rax,0x20(%rsp)
    459c:	48 89 c7             	mov    %rax,%rdi
    459f:	48 89 d6             	mov    %rdx,%rsi
    45a2:	e8 39 07 00 00       	callq  4ce0 <_ZN5alloc5alloc5alloc17hb7783377ccc74b55E>
    45a7:	48 89 44 24 30       	mov    %rax,0x30(%rsp)
    45ac:	48 89 c7             	mov    %rax,%rdi
    45af:	e8 6c 07 00 00       	callq  4d20 <_ZN4core3ptr31_$LT$impl$u20$$BP$mut$u20$T$GT$7is_null17h0beb2dbbe31f45e5E>
    45b4:	84 c0                	test   %al,%al
    45b6:	75 1b                	jne    45d3 <_ZN5alloc5alloc15exchange_malloc17h63e0c9bfc9193931E+0x63>
    45b8:	48 8b 44 24 30       	mov    0x30(%rsp),%rax
    45bd:	eb 05                	jmp    45c4 <_ZN5alloc5alloc15exchange_malloc17h63e0c9bfc9193931E+0x54>
    45bf:	48 8b 44 24 08       	mov    0x8(%rsp),%rax
    45c4:	48 89 44 24 10       	mov    %rax,0x10(%rsp)
    45c9:	48 8b 44 24 10       	mov    0x10(%rsp),%rax
    45ce:	48 83 c4 38          	add    $0x38,%rsp
    45d2:	c3                   	retq   
    45d3:	48 8b 7c 24 20       	mov    0x20(%rsp),%rdi
    45d8:	48 8b 74 24 28       	mov    0x28(%rsp),%rsi
    45dd:	e8 4e d3 01 00       	callq  21930 <_ZN5alloc5alloc18handle_alloc_error17hb8f8a0e42d4fb5daE>
    45e2:	90                   	nop
    45e3:	90                   	nop
    45e4:	90                   	nop
    45e5:	90                   	nop
    45e6:	90                   	nop
    45e7:	90                   	nop
    45e8:	90                   	nop
    45e9:	90                   	nop
    45ea:	90                   	nop
    45eb:	90                   	nop
    45ec:	90                   	nop
    45ed:	90                   	nop
    45ee:	90                   	nop
    45ef:	90                   	nop

00000000000045f0 <_ZN65_$LT$alloc..boxed..Box$LT$T$GT$$u20$as$u20$core..fmt..Display$GT$3fmt17h877f2273b8fa74b1E>:
    45f0:	48 83 ec 18          	sub    $0x18,%rsp
    45f4:	48 89 7c 24 08       	mov    %rdi,0x8(%rsp)
    45f9:	48 89 74 24 10       	mov    %rsi,0x10(%rsp)
    45fe:	48 8b 3f             	mov    (%rdi),%rdi
    4601:	e8 5a da 01 00       	callq  22060 <_ZN4core3fmt3num52_$LT$impl$u20$core..fmt..Display$u20$for$u20$i32$GT$3fmt17hdab52a0b3d129bfbE>
    4606:	48 83 c4 18          	add    $0x18,%rsp
    460a:	c3                   	retq   
    460b:	90                   	nop
    460c:	90                   	nop
    460d:	90                   	nop
    460e:	90                   	nop
    460f:	90                   	nop

0000000000004610 <_ZN4core3fmt10ArgumentV13new17hb37c2a03f41e5eb3E>:
    4610:	48 83 ec 30          	sub    $0x30,%rsp
    4614:	48 89 3c 24          	mov    %rdi,(%rsp)
    4618:	48 89 74 24 08       	mov    %rsi,0x8(%rsp)
    461d:	48 89 74 24 20       	mov    %rsi,0x20(%rsp)
    4622:	48 89 7c 24 28       	mov    %rdi,0x28(%rsp)
    4627:	48 89 7c 24 10       	mov    %rdi,0x10(%rsp)
    462c:	48 89 74 24 18       	mov    %rsi,0x18(%rsp)
    4631:	48 89 f8             	mov    %rdi,%rax
    4634:	48 89 f2             	mov    %rsi,%rdx
    4637:	48 83 c4 30          	add    $0x30,%rsp
    463b:	c3                   	retq   
    463c:	90                   	nop
    463d:	90                   	nop
    463e:	90                   	nop
    463f:	90                   	nop

0000000000004640 <_ZN4core3fmt9Arguments16new_v1_formatted17h1d83b72459772b55E>:
    4640:	48 83 ec 40          	sub    $0x40,%rsp
    4644:	48 8b 44 24 48       	mov    0x48(%rsp),%rax
    4649:	48 89 74 24 10       	mov    %rsi,0x10(%rsp)
    464e:	48 89 54 24 18       	mov    %rdx,0x18(%rsp)
    4653:	48 89 4c 24 20       	mov    %rcx,0x20(%rsp)
    4658:	4c 89 44 24 28       	mov    %r8,0x28(%rsp)
    465d:	4c 89 4c 24 30       	mov    %r9,0x30(%rsp)
    4662:	48 89 44 24 38       	mov    %rax,0x38(%rsp)
    4667:	4c 89 0c 24          	mov    %r9,(%rsp)
    466b:	48 89 44 24 08       	mov    %rax,0x8(%rsp)
    4670:	48 89 37             	mov    %rsi,(%rdi)
    4673:	48 89 57 08          	mov    %rdx,0x8(%rdi)
    4677:	48 8b 04 24          	mov    (%rsp),%rax
    467b:	48 8b 54 24 08       	mov    0x8(%rsp),%rdx
    4680:	48 89 47 10          	mov    %rax,0x10(%rdi)
    4684:	48 89 57 18          	mov    %rdx,0x18(%rdi)
    4688:	48 89 4f 20          	mov    %rcx,0x20(%rdi)
    468c:	4c 89 47 28          	mov    %r8,0x28(%rdi)
    4690:	48 89 f8             	mov    %rdi,%rax
    4693:	48 83 c4 40          	add    $0x40,%rsp
    4697:	c3                   	retq   
    4698:	90                   	nop
    4699:	90                   	nop
    469a:	90                   	nop
    469b:	90                   	nop
    469c:	90                   	nop
    469d:	90                   	nop
    469e:	90                   	nop
    469f:	90                   	nop

00000000000046a0 <_ZN4core3ptr13drop_in_place17h80fea2285cab8f0dE>:
    46a0:	48 83 ec 18          	sub    $0x18,%rsp
    46a4:	48 89 3c 24          	mov    %rdi,(%rsp)
    46a8:	e8 a3 03 00 00       	callq  4a50 <_ZN66_$LT$alloc..vec..Vec$LT$T$GT$$u20$as$u20$core..ops..drop..Drop$GT$4drop17h154947b4b5b97da4E>
    46ad:	48 8b 3c 24          	mov    (%rsp),%rdi
    46b1:	e8 ba 03 00 00       	callq  4a70 <_ZN4core3ptr13drop_in_place17h8627176a9a15f61aE>
    46b6:	48 83 c4 18          	add    $0x18,%rsp
    46ba:	c3                   	retq   
    46bb:	48 89 44 24 08       	mov    %rax,0x8(%rsp)
    46c0:	89 54 24 10          	mov    %edx,0x10(%rsp)
    46c4:	48 8b 3c 24          	mov    (%rsp),%rdi
    46c8:	e8 a3 03 00 00       	callq  4a70 <_ZN4core3ptr13drop_in_place17h8627176a9a15f61aE>
    46cd:	48 8b 7c 24 08       	mov    0x8(%rsp),%rdi
    46d2:	e8 69 f7 ff ff       	callq  3e40 <_Unwind_Resume@plt>
    46d7:	90                   	nop
    46d8:	90                   	nop
    46d9:	90                   	nop
    46da:	90                   	nop
    46db:	90                   	nop
    46dc:	90                   	nop
    46dd:	90                   	nop
    46de:	90                   	nop
    46df:	90                   	nop

00000000000046e0 <_ZN4core3ptr13drop_in_place17h8658524a855bf2feE>:
    46e0:	48 83 ec 18          	sub    $0x18,%rsp
    46e4:	48 89 3c 24          	mov    %rdi,(%rsp)
    46e8:	48 8b 04 24          	mov    (%rsp),%rax
    46ec:	48 8b 38             	mov    (%rax),%rdi
    46ef:	e8 7c 02 00 00       	callq  4970 <_ZN5alloc5alloc8box_free17h2e878bc000a655adE>
    46f4:	48 83 c4 18          	add    $0x18,%rsp
    46f8:	c3                   	retq   
    46f9:	90                   	nop
    46fa:	90                   	nop
    46fb:	90                   	nop
    46fc:	90                   	nop
    46fd:	90                   	nop
    46fe:	90                   	nop
    46ff:	90                   	nop

0000000000004700 <_ZN68_$LT$alloc..vec..Vec$LT$T$GT$$u20$as$u20$core..ops..deref..Deref$GT$5deref17hce5a12357a6338f8E>:
    4700:	48 83 ec 18          	sub    $0x18,%rsp
    4704:	48 89 7c 24 10       	mov    %rdi,0x10(%rsp)
    4709:	e8 92 01 00 00       	callq  48a0 <_ZN49_$LT$alloc..raw_vec..RawVec$LT$T$C$$u20$A$GT$$GT$3ptr17heec425c4a8e05ba8E>
    470e:	48 89 44 24 08       	mov    %rax,0x8(%rsp)
    4713:	48 8b 7c 24 08       	mov    0x8(%rsp),%rdi
    4718:	e8 53 01 00 00       	callq  4870 <_ZN4core3ptr31_$LT$impl$u20$$BP$mut$u20$T$GT$7is_null17hda04940d4d5b110dE>
    471d:	48 8b 7c 24 08       	mov    0x8(%rsp),%rdi
    4722:	48 8b 44 24 10       	mov    0x10(%rsp),%rax
    4727:	48 8b 70 10          	mov    0x10(%rax),%rsi
    472b:	e8 10 02 00 00       	callq  4940 <_ZN4core5slice14from_raw_parts17h0e7dc6bc8bbae6a0E>
    4730:	48 83 c4 18          	add    $0x18,%rsp
    4734:	c3                   	retq   
    4735:	90                   	nop
    4736:	90                   	nop
    4737:	90                   	nop
    4738:	90                   	nop
    4739:	90                   	nop
    473a:	90                   	nop
    473b:	90                   	nop
    473c:	90                   	nop
    473d:	90                   	nop
    473e:	90                   	nop
    473f:	90                   	nop

0000000000004740 <_ZN4core5slice29_$LT$impl$u20$$u5b$T$u5d$$GT$6as_ptr17hffa7190ba0695040E>:
    4740:	48 83 ec 10          	sub    $0x10,%rsp
    4744:	48 89 3c 24          	mov    %rdi,(%rsp)
    4748:	48 89 74 24 08       	mov    %rsi,0x8(%rsp)
    474d:	48 89 f8             	mov    %rdi,%rax
    4750:	48 83 c4 10          	add    $0x10,%rsp
    4754:	c3                   	retq   
    4755:	90                   	nop
    4756:	90                   	nop
    4757:	90                   	nop
    4758:	90                   	nop
    4759:	90                   	nop
    475a:	90                   	nop
    475b:	90                   	nop
    475c:	90                   	nop
    475d:	90                   	nop
    475e:	90                   	nop
    475f:	90                   	nop

0000000000004760 <_ZN4core3ptr33_$LT$impl$u20$$BP$const$u20$T$GT$11offset_from17h5d895e639e573c8cE>:
    4760:	53                   	push   %rbx
    4761:	48 83 ec 30          	sub    $0x30,%rsp
    4765:	48 89 7c 24 10       	mov    %rdi,0x10(%rsp)
    476a:	48 89 74 24 18       	mov    %rsi,0x18(%rsp)
    476f:	e8 7c 01 00 00       	callq  48f0 <_ZN4core3mem7size_of17hd4678e014d757a21E>
    4774:	48 89 44 24 08       	mov    %rax,0x8(%rsp)
    4779:	48 83 7c 24 08 00    	cmpq   $0x0,0x8(%rsp)
    477f:	74 1d                	je     479e <_ZN4core3ptr33_$LT$impl$u20$$BP$const$u20$T$GT$11offset_from17h5d895e639e573c8cE+0x3e>
    4781:	48 8b 5c 24 08       	mov    0x8(%rsp),%rbx
    4786:	e8 75 01 00 00       	callq  4900 <_ZN4core3num23_$LT$impl$u20$isize$GT$9max_value17h7ccf9f20b916b129E>
    478b:	48 39 c3             	cmp    %rax,%rbx
    478e:	77 0e                	ja     479e <_ZN4core3ptr33_$LT$impl$u20$$BP$const$u20$T$GT$11offset_from17h5d895e639e573c8cE+0x3e>
    4790:	c6 44 24 07 01       	movb   $0x1,0x7(%rsp)
    4795:	80 7c 24 07 01       	cmpb   $0x1,0x7(%rsp)
    479a:	74 0e                	je     47aa <_ZN4core3ptr33_$LT$impl$u20$$BP$const$u20$T$GT$11offset_from17h5d895e639e573c8cE+0x4a>
    479c:	eb 37                	jmp    47d5 <_ZN4core3ptr33_$LT$impl$u20$$BP$const$u20$T$GT$11offset_from17h5d895e639e573c8cE+0x75>
    479e:	c6 44 24 07 00       	movb   $0x0,0x7(%rsp)
    47a3:	80 7c 24 07 01       	cmpb   $0x1,0x7(%rsp)
    47a8:	75 2b                	jne    47d5 <_ZN4core3ptr33_$LT$impl$u20$$BP$const$u20$T$GT$11offset_from17h5d895e639e573c8cE+0x75>
    47aa:	48 8b 7c 24 10       	mov    0x10(%rsp),%rdi
    47af:	48 8b 74 24 18       	mov    0x18(%rsp),%rsi
    47b4:	e8 57 01 00 00       	callq  4910 <_ZN4core3num23_$LT$impl$u20$isize$GT$12wrapping_sub17h979e5f17996b34daE>
    47b9:	48 89 44 24 20       	mov    %rax,0x20(%rsp)
    47be:	48 8b 44 24 20       	mov    0x20(%rsp),%rax
    47c3:	48 99                	cqto   
    47c5:	48 f7 7c 24 08       	idivq  0x8(%rsp)
    47ca:	48 89 44 24 28       	mov    %rax,0x28(%rsp)
    47cf:	48 83 c4 30          	add    $0x30,%rsp
    47d3:	5b                   	pop    %rbx
    47d4:	c3                   	retq   
    47d5:	48 8d 3d 04 04 23 00 	lea    0x230404(%rip),%rdi        # 234be0 <debug_section_names+0xa0>
    47dc:	e8 af 27 02 00       	callq  26f90 <_ZN4core9panicking5panic17ha7de372c9886ba85E>
    47e1:	90                   	nop
    47e2:	90                   	nop
    47e3:	90                   	nop
    47e4:	90                   	nop
    47e5:	90                   	nop
    47e6:	90                   	nop
    47e7:	90                   	nop
    47e8:	90                   	nop
    47e9:	90                   	nop
    47ea:	90                   	nop
    47eb:	90                   	nop
    47ec:	90                   	nop
    47ed:	90                   	nop
    47ee:	90                   	nop
    47ef:	90                   	nop

00000000000047f0 <_ZN71_$LT$alloc..vec..Vec$LT$T$GT$$u20$as$u20$core..ops..deref..DerefMut$GT$9deref_mut17hc288ebb429141c02E>:
    47f0:	48 83 ec 18          	sub    $0x18,%rsp
    47f4:	48 89 7c 24 10       	mov    %rdi,0x10(%rsp)
    47f9:	e8 a2 00 00 00       	callq  48a0 <_ZN49_$LT$alloc..raw_vec..RawVec$LT$T$C$$u20$A$GT$$GT$3ptr17heec425c4a8e05ba8E>
    47fe:	48 89 44 24 08       	mov    %rax,0x8(%rsp)
    4803:	48 8b 7c 24 08       	mov    0x8(%rsp),%rdi
    4808:	e8 63 00 00 00       	callq  4870 <_ZN4core3ptr31_$LT$impl$u20$$BP$mut$u20$T$GT$7is_null17hda04940d4d5b110dE>
    480d:	48 8b 7c 24 08       	mov    0x8(%rsp),%rdi
    4812:	48 8b 44 24 10       	mov    0x10(%rsp),%rax
    4817:	48 8b 70 10          	mov    0x10(%rax),%rsi
    481b:	e8 90 00 00 00       	callq  48b0 <_ZN4core5slice18from_raw_parts_mut17he616297d265d9939E>
    4820:	48 83 c4 18          	add    $0x18,%rsp
    4824:	c3                   	retq   
    4825:	90                   	nop
    4826:	90                   	nop
    4827:	90                   	nop
    4828:	90                   	nop
    4829:	90                   	nop
    482a:	90                   	nop
    482b:	90                   	nop
    482c:	90                   	nop
    482d:	90                   	nop
    482e:	90                   	nop
    482f:	90                   	nop

0000000000004830 <_ZN4core5slice29_$LT$impl$u20$$u5b$T$u5d$$GT$10as_mut_ptr17h5ba90e1e21362695E>:
    4830:	48 83 ec 10          	sub    $0x10,%rsp
    4834:	48 89 3c 24          	mov    %rdi,(%rsp)
    4838:	48 89 74 24 08       	mov    %rsi,0x8(%rsp)
    483d:	48 89 f8             	mov    %rdi,%rax
    4840:	48 83 c4 10          	add    $0x10,%rsp
    4844:	c3                   	retq   
    4845:	90                   	nop
    4846:	90                   	nop
    4847:	90                   	nop
    4848:	90                   	nop
    4849:	90                   	nop
    484a:	90                   	nop
    484b:	90                   	nop
    484c:	90                   	nop
    484d:	90                   	nop
    484e:	90                   	nop
    484f:	90                   	nop

0000000000004850 <_ZN4core3ptr31_$LT$impl$u20$$BP$mut$u20$T$GT$6offset17h7bc7ce93a7a33c58E>:
    4850:	48 83 ec 18          	sub    $0x18,%rsp
    4854:	48 89 3c 24          	mov    %rdi,(%rsp)
    4858:	48 89 74 24 08       	mov    %rsi,0x8(%rsp)
    485d:	48 8d 04 b7          	lea    (%rdi,%rsi,4),%rax
    4861:	48 89 44 24 10       	mov    %rax,0x10(%rsp)
    4866:	48 83 c4 18          	add    $0x18,%rsp
    486a:	c3                   	retq   
    486b:	90                   	nop
    486c:	90                   	nop
    486d:	90                   	nop
    486e:	90                   	nop
    486f:	90                   	nop

0000000000004870 <_ZN4core3ptr31_$LT$impl$u20$$BP$mut$u20$T$GT$7is_null17hda04940d4d5b110dE>:
    4870:	53                   	push   %rbx
    4871:	48 83 ec 10          	sub    $0x10,%rsp
    4875:	48 89 fb             	mov    %rdi,%rbx
    4878:	48 89 7c 24 08       	mov    %rdi,0x8(%rsp)
    487d:	e8 0e 00 00 00       	callq  4890 <_ZN4core3ptr8null_mut17h98beb488a1994ed5E>
    4882:	48 39 c3             	cmp    %rax,%rbx
    4885:	0f 94 c0             	sete   %al
    4888:	48 83 c4 10          	add    $0x10,%rsp
    488c:	5b                   	pop    %rbx
    488d:	c3                   	retq   
    488e:	90                   	nop
    488f:	90                   	nop

0000000000004890 <_ZN4core3ptr8null_mut17h98beb488a1994ed5E>:
    4890:	31 c0                	xor    %eax,%eax
    4892:	c3                   	retq   
    4893:	90                   	nop
    4894:	90                   	nop
    4895:	90                   	nop
    4896:	90                   	nop
    4897:	90                   	nop
    4898:	90                   	nop
    4899:	90                   	nop
    489a:	90                   	nop
    489b:	90                   	nop
    489c:	90                   	nop
    489d:	90                   	nop
    489e:	90                   	nop
    489f:	90                   	nop

00000000000048a0 <_ZN49_$LT$alloc..raw_vec..RawVec$LT$T$C$$u20$A$GT$$GT$3ptr17heec425c4a8e05ba8E>:
    48a0:	50                   	push   %rax
    48a1:	48 89 3c 24          	mov    %rdi,(%rsp)
    48a5:	48 8b 3f             	mov    (%rdi),%rdi
    48a8:	e8 33 00 00 00       	callq  48e0 <_ZN35_$LT$core..ptr..Unique$LT$T$GT$$GT$6as_ptr17h56a6c86b348ca31aE>
    48ad:	59                   	pop    %rcx
    48ae:	c3                   	retq   
    48af:	90                   	nop

00000000000048b0 <_ZN4core5slice18from_raw_parts_mut17he616297d265d9939E>:
    48b0:	48 83 ec 30          	sub    $0x30,%rsp
    48b4:	48 89 3c 24          	mov    %rdi,(%rsp)
    48b8:	48 89 74 24 08       	mov    %rsi,0x8(%rsp)
    48bd:	48 89 7c 24 20       	mov    %rdi,0x20(%rsp)
    48c2:	48 89 74 24 28       	mov    %rsi,0x28(%rsp)
    48c7:	48 89 7c 24 10       	mov    %rdi,0x10(%rsp)
    48cc:	48 89 74 24 18       	mov    %rsi,0x18(%rsp)
    48d1:	48 89 f8             	mov    %rdi,%rax
    48d4:	48 89 f2             	mov    %rsi,%rdx
    48d7:	48 83 c4 30          	add    $0x30,%rsp
    48db:	c3                   	retq   
    48dc:	90                   	nop
    48dd:	90                   	nop
    48de:	90                   	nop
    48df:	90                   	nop

00000000000048e0 <_ZN35_$LT$core..ptr..Unique$LT$T$GT$$GT$6as_ptr17h56a6c86b348ca31aE>:
    48e0:	50                   	push   %rax
    48e1:	48 89 3c 24          	mov    %rdi,(%rsp)
    48e5:	48 89 f8             	mov    %rdi,%rax
    48e8:	59                   	pop    %rcx
    48e9:	c3                   	retq   
    48ea:	90                   	nop
    48eb:	90                   	nop
    48ec:	90                   	nop
    48ed:	90                   	nop
    48ee:	90                   	nop
    48ef:	90                   	nop

00000000000048f0 <_ZN4core3mem7size_of17hd4678e014d757a21E>:
    48f0:	50                   	push   %rax
    48f1:	48 c7 04 24 04 00 00 	movq   $0x4,(%rsp)
    48f8:	00 
    48f9:	b8 04 00 00 00       	mov    $0x4,%eax
    48fe:	59                   	pop    %rcx
    48ff:	c3                   	retq   

0000000000004900 <_ZN4core3num23_$LT$impl$u20$isize$GT$9max_value17h7ccf9f20b916b129E>:
    4900:	50                   	push   %rax
    4901:	e8 2a 00 00 00       	callq  4930 <_ZN4core3num23_$LT$impl$u20$isize$GT$9min_value17h117606890214182cE>
    4906:	48 f7 d0             	not    %rax
    4909:	59                   	pop    %rcx
    490a:	c3                   	retq   
    490b:	90                   	nop
    490c:	90                   	nop
    490d:	90                   	nop
    490e:	90                   	nop
    490f:	90                   	nop

0000000000004910 <_ZN4core3num23_$LT$impl$u20$isize$GT$12wrapping_sub17h979e5f17996b34daE>:
    4910:	48 83 ec 18          	sub    $0x18,%rsp
    4914:	48 89 3c 24          	mov    %rdi,(%rsp)
    4918:	48 89 74 24 08       	mov    %rsi,0x8(%rsp)
    491d:	48 29 f7             	sub    %rsi,%rdi
    4920:	48 89 7c 24 10       	mov    %rdi,0x10(%rsp)
    4925:	48 89 f8             	mov    %rdi,%rax
    4928:	48 83 c4 18          	add    $0x18,%rsp
    492c:	c3                   	retq   
    492d:	90                   	nop
    492e:	90                   	nop
    492f:	90                   	nop

0000000000004930 <_ZN4core3num23_$LT$impl$u20$isize$GT$9min_value17h117606890214182cE>:
    4930:	48 b8 00 00 00 00 00 	movabs $0x8000000000000000,%rax
    4937:	00 00 80 
    493a:	c3                   	retq   
    493b:	90                   	nop
    493c:	90                   	nop
    493d:	90                   	nop
    493e:	90                   	nop
    493f:	90                   	nop

0000000000004940 <_ZN4core5slice14from_raw_parts17h0e7dc6bc8bbae6a0E>:
    4940:	48 83 ec 30          	sub    $0x30,%rsp
    4944:	48 89 3c 24          	mov    %rdi,(%rsp)
    4948:	48 89 74 24 08       	mov    %rsi,0x8(%rsp)
    494d:	48 89 7c 24 20       	mov    %rdi,0x20(%rsp)
    4952:	48 89 74 24 28       	mov    %rsi,0x28(%rsp)
    4957:	48 89 7c 24 10       	mov    %rdi,0x10(%rsp)
    495c:	48 89 74 24 18       	mov    %rsi,0x18(%rsp)
    4961:	48 89 f8             	mov    %rdi,%rax
    4964:	48 89 f2             	mov    %rsi,%rdx
    4967:	48 83 c4 30          	add    $0x30,%rsp
    496b:	c3                   	retq   
    496c:	90                   	nop
    496d:	90                   	nop
    496e:	90                   	nop
    496f:	90                   	nop

0000000000004970 <_ZN5alloc5alloc8box_free17h2e878bc000a655adE>:
    4970:	48 83 ec 38          	sub    $0x38,%rsp
    4974:	48 89 7c 24 20       	mov    %rdi,0x20(%rsp)
    4979:	e8 62 ff ff ff       	callq  48e0 <_ZN35_$LT$core..ptr..Unique$LT$T$GT$$GT$6as_ptr17h56a6c86b348ca31aE>
    497e:	48 89 44 24 08       	mov    %rax,0x8(%rsp)
    4983:	48 c7 44 24 10 04 00 	movq   $0x4,0x10(%rsp)
    498a:	00 00 
    498c:	48 c7 44 24 18 04 00 	movq   $0x4,0x18(%rsp)
    4993:	00 00 
    4995:	31 c0                	xor    %eax,%eax
    4997:	84 c0                	test   %al,%al
    4999:	75 26                	jne    49c1 <_ZN5alloc5alloc8box_free17h2e878bc000a655adE+0x51>
    499b:	48 8b 7c 24 10       	mov    0x10(%rsp),%rdi
    49a0:	48 8b 74 24 18       	mov    0x18(%rsp),%rsi
    49a5:	e8 26 f8 ff ff       	callq  41d0 <_ZN4core5alloc6Layout25from_size_align_unchecked17h5df097b65d175720E>
    49aa:	48 89 44 24 28       	mov    %rax,0x28(%rsp)
    49af:	48 89 54 24 30       	mov    %rdx,0x30(%rsp)
    49b4:	48 8b 7c 24 08       	mov    0x8(%rsp),%rdi
    49b9:	48 89 c6             	mov    %rax,%rsi
    49bc:	e8 0f 00 00 00       	callq  49d0 <_ZN5alloc5alloc7dealloc17h14111ec4ad5f75b7E>
    49c1:	48 83 c4 38          	add    $0x38,%rsp
    49c5:	c3                   	retq   
    49c6:	90                   	nop
    49c7:	90                   	nop
    49c8:	90                   	nop
    49c9:	90                   	nop
    49ca:	90                   	nop
    49cb:	90                   	nop
    49cc:	90                   	nop
    49cd:	90                   	nop
    49ce:	90                   	nop
    49cf:	90                   	nop

00000000000049d0 <_ZN5alloc5alloc7dealloc17h14111ec4ad5f75b7E>:
    49d0:	41 57                	push   %r15
    49d2:	41 56                	push   %r14
    49d4:	53                   	push   %rbx
    49d5:	48 83 ec 20          	sub    $0x20,%rsp
    49d9:	48 89 fb             	mov    %rdi,%rbx
    49dc:	48 89 7c 24 18       	mov    %rdi,0x18(%rsp)
    49e1:	48 89 74 24 08       	mov    %rsi,0x8(%rsp)
    49e6:	48 89 54 24 10       	mov    %rdx,0x10(%rsp)
    49eb:	4c 8d 74 24 08       	lea    0x8(%rsp),%r14
    49f0:	4c 89 f7             	mov    %r14,%rdi
    49f3:	e8 28 00 00 00       	callq  4a20 <_ZN4core5alloc6Layout4size17hb82d1e09cf903eeaE>
    49f8:	49 89 c7             	mov    %rax,%r15
    49fb:	4c 89 f7             	mov    %r14,%rdi
    49fe:	e8 2d 00 00 00       	callq  4a30 <_ZN4core5alloc6Layout5align17hccbc098d0051d148E>
    4a03:	48 89 df             	mov    %rbx,%rdi
    4a06:	4c 89 fe             	mov    %r15,%rsi
    4a09:	48 89 c2             	mov    %rax,%rdx
    4a0c:	e8 2f 0c 00 00       	callq  5640 <__rust_dealloc>
    4a11:	48 83 c4 20          	add    $0x20,%rsp
    4a15:	5b                   	pop    %rbx
    4a16:	41 5e                	pop    %r14
    4a18:	41 5f                	pop    %r15
    4a1a:	c3                   	retq   
    4a1b:	90                   	nop
    4a1c:	90                   	nop
    4a1d:	90                   	nop
    4a1e:	90                   	nop
    4a1f:	90                   	nop

0000000000004a20 <_ZN4core5alloc6Layout4size17hb82d1e09cf903eeaE>:
    4a20:	50                   	push   %rax
    4a21:	48 89 3c 24          	mov    %rdi,(%rsp)
    4a25:	48 8b 07             	mov    (%rdi),%rax
    4a28:	59                   	pop    %rcx
    4a29:	c3                   	retq   
    4a2a:	90                   	nop
    4a2b:	90                   	nop
    4a2c:	90                   	nop
    4a2d:	90                   	nop
    4a2e:	90                   	nop
    4a2f:	90                   	nop

0000000000004a30 <_ZN4core5alloc6Layout5align17hccbc098d0051d148E>:
    4a30:	50                   	push   %rax
    4a31:	48 89 3c 24          	mov    %rdi,(%rsp)
    4a35:	48 8b 7f 08          	mov    0x8(%rdi),%rdi
    4a39:	e8 02 00 00 00       	callq  4a40 <_ZN4core3num12NonZeroUsize3get17h2d30bf9cfdb76f90E>
    4a3e:	59                   	pop    %rcx
    4a3f:	c3                   	retq   

0000000000004a40 <_ZN4core3num12NonZeroUsize3get17h2d30bf9cfdb76f90E>:
    4a40:	50                   	push   %rax
    4a41:	48 89 3c 24          	mov    %rdi,(%rsp)
    4a45:	48 89 f8             	mov    %rdi,%rax
    4a48:	59                   	pop    %rcx
    4a49:	c3                   	retq   
    4a4a:	90                   	nop
    4a4b:	90                   	nop
    4a4c:	90                   	nop
    4a4d:	90                   	nop
    4a4e:	90                   	nop
    4a4f:	90                   	nop

0000000000004a50 <_ZN66_$LT$alloc..vec..Vec$LT$T$GT$$u20$as$u20$core..ops..drop..Drop$GT$4drop17h154947b4b5b97da4E>:
    4a50:	48 83 ec 18          	sub    $0x18,%rsp
    4a54:	48 89 7c 24 08       	mov    %rdi,0x8(%rsp)
    4a59:	e8 e2 01 00 00       	callq  4c40 <_ZN80_$LT$alloc..vec..Vec$LT$T$GT$$u20$as$u20$core..ops..index..IndexMut$LT$I$GT$$GT$9index_mut17h713a486075b9a469E>
    4a5e:	48 83 c4 18          	add    $0x18,%rsp
    4a62:	c3                   	retq   
    4a63:	90                   	nop
    4a64:	90                   	nop
    4a65:	90                   	nop
    4a66:	90                   	nop
    4a67:	90                   	nop
    4a68:	90                   	nop
    4a69:	90                   	nop
    4a6a:	90                   	nop
    4a6b:	90                   	nop
    4a6c:	90                   	nop
    4a6d:	90                   	nop
    4a6e:	90                   	nop
    4a6f:	90                   	nop

0000000000004a70 <_ZN4core3ptr13drop_in_place17h8627176a9a15f61aE>:
    4a70:	50                   	push   %rax
    4a71:	48 89 3c 24          	mov    %rdi,(%rsp)
    4a75:	e8 06 00 00 00       	callq  4a80 <_ZN82_$LT$alloc..raw_vec..RawVec$LT$T$C$$u20$A$GT$$u20$as$u20$core..ops..drop..Drop$GT$4drop17hcd72a8c927e90661E>
    4a7a:	58                   	pop    %rax
    4a7b:	c3                   	retq   
    4a7c:	90                   	nop
    4a7d:	90                   	nop
    4a7e:	90                   	nop
    4a7f:	90                   	nop

0000000000004a80 <_ZN82_$LT$alloc..raw_vec..RawVec$LT$T$C$$u20$A$GT$$u20$as$u20$core..ops..drop..Drop$GT$4drop17hcd72a8c927e90661E>:
    4a80:	50                   	push   %rax
    4a81:	48 89 3c 24          	mov    %rdi,(%rsp)
    4a85:	e8 06 00 00 00       	callq  4a90 <_ZN49_$LT$alloc..raw_vec..RawVec$LT$T$C$$u20$A$GT$$GT$14dealloc_buffer17h0ebf6b60ba311b9aE>
    4a8a:	58                   	pop    %rax
    4a8b:	c3                   	retq   
    4a8c:	90                   	nop
    4a8d:	90                   	nop
    4a8e:	90                   	nop
    4a8f:	90                   	nop

0000000000004a90 <_ZN49_$LT$alloc..raw_vec..RawVec$LT$T$C$$u20$A$GT$$GT$14dealloc_buffer17h0ebf6b60ba311b9aE>:
    4a90:	53                   	push   %rbx
    4a91:	48 83 ec 40          	sub    $0x40,%rsp
    4a95:	48 89 7c 24 08       	mov    %rdi,0x8(%rsp)
    4a9a:	e8 51 fe ff ff       	callq  48f0 <_ZN4core3mem7size_of17hd4678e014d757a21E>
    4a9f:	48 89 44 24 30       	mov    %rax,0x30(%rsp)
    4aa4:	48 85 c0             	test   %rax,%rax
    4aa7:	74 61                	je     4b0a <_ZN49_$LT$alloc..raw_vec..RawVec$LT$T$C$$u20$A$GT$$GT$14dealloc_buffer17h0ebf6b60ba311b9aE+0x7a>
    4aa9:	48 8b 7c 24 08       	mov    0x8(%rsp),%rdi
    4aae:	e8 5d 00 00 00       	callq  4b10 <_ZN49_$LT$alloc..raw_vec..RawVec$LT$T$C$$u20$A$GT$$GT$14current_layout17he4361c92deae915eE>
    4ab3:	48 89 54 24 18       	mov    %rdx,0x18(%rsp)
    4ab8:	48 89 44 24 10       	mov    %rax,0x10(%rsp)
    4abd:	48 8d 44 24 10       	lea    0x10(%rsp),%rax
    4ac2:	48 89 44 24 38       	mov    %rax,0x38(%rsp)
    4ac7:	48 85 d2             	test   %rdx,%rdx
    4aca:	74 3e                	je     4b0a <_ZN49_$LT$alloc..raw_vec..RawVec$LT$T$C$$u20$A$GT$$GT$14dealloc_buffer17h0ebf6b60ba311b9aE+0x7a>
    4acc:	48 8b 44 24 10       	mov    0x10(%rsp),%rax
    4ad1:	48 8b 4c 24 18       	mov    0x18(%rsp),%rcx
    4ad6:	48 89 44 24 20       	mov    %rax,0x20(%rsp)
    4adb:	48 89 4c 24 28       	mov    %rcx,0x28(%rsp)
    4ae0:	48 8b 5c 24 08       	mov    0x8(%rsp),%rbx
    4ae5:	48 8b 3b             	mov    (%rbx),%rdi
    4ae8:	e8 83 00 00 00       	callq  4b70 <_ZN101_$LT$core..ptr..NonNull$LT$T$GT$$u20$as$u20$core..convert..From$LT$core..ptr..Unique$LT$T$GT$$GT$$GT$4from17h24ba16162daac5ddE>
    4aed:	48 89 c7             	mov    %rax,%rdi
    4af0:	e8 9b 00 00 00       	callq  4b90 <_ZN36_$LT$core..ptr..NonNull$LT$T$GT$$GT$4cast17hb787b9900d4aae77E>
    4af5:	48 8b 54 24 20       	mov    0x20(%rsp),%rdx
    4afa:	48 8b 4c 24 28       	mov    0x28(%rsp),%rcx
    4aff:	48 89 df             	mov    %rbx,%rdi
    4b02:	48 89 c6             	mov    %rax,%rsi
    4b05:	e8 a6 00 00 00       	callq  4bb0 <_ZN59_$LT$alloc..alloc..Global$u20$as$u20$core..alloc..Alloc$GT$7dealloc17h79f31906613139cbE>
    4b0a:	48 83 c4 40          	add    $0x40,%rsp
    4b0e:	5b                   	pop    %rbx
    4b0f:	c3                   	retq   

0000000000004b10 <_ZN49_$LT$alloc..raw_vec..RawVec$LT$T$C$$u20$A$GT$$GT$14current_layout17he4361c92deae915eE>:
    4b10:	48 83 ec 28          	sub    $0x28,%rsp
    4b14:	48 89 7c 24 10       	mov    %rdi,0x10(%rsp)
    4b19:	48 83 7f 08 00       	cmpq   $0x0,0x8(%rdi)
    4b1e:	74 36                	je     4b56 <_ZN49_$LT$alloc..raw_vec..RawVec$LT$T$C$$u20$A$GT$$GT$14current_layout17he4361c92deae915eE+0x46>
    4b20:	e8 0b 01 00 00       	callq  4c30 <_ZN4core3mem8align_of17ha9315799a7f622c6E>
    4b25:	48 89 44 24 18       	mov    %rax,0x18(%rsp)
    4b2a:	e8 c1 fd ff ff       	callq  48f0 <_ZN4core3mem7size_of17hd4678e014d757a21E>
    4b2f:	48 8b 4c 24 10       	mov    0x10(%rsp),%rcx
    4b34:	48 0f af 41 08       	imul   0x8(%rcx),%rax
    4b39:	48 89 44 24 20       	mov    %rax,0x20(%rsp)
    4b3e:	48 8b 74 24 18       	mov    0x18(%rsp),%rsi
    4b43:	48 89 c7             	mov    %rax,%rdi
    4b46:	e8 85 f6 ff ff       	callq  41d0 <_ZN4core5alloc6Layout25from_size_align_unchecked17h5df097b65d175720E>
    4b4b:	48 89 04 24          	mov    %rax,(%rsp)
    4b4f:	48 89 54 24 08       	mov    %rdx,0x8(%rsp)
    4b54:	eb 09                	jmp    4b5f <_ZN49_$LT$alloc..raw_vec..RawVec$LT$T$C$$u20$A$GT$$GT$14current_layout17he4361c92deae915eE+0x4f>
    4b56:	48 c7 44 24 08 00 00 	movq   $0x0,0x8(%rsp)
    4b5d:	00 00 
    4b5f:	48 8b 04 24          	mov    (%rsp),%rax
    4b63:	48 8b 54 24 08       	mov    0x8(%rsp),%rdx
    4b68:	48 83 c4 28          	add    $0x28,%rsp
    4b6c:	c3                   	retq   
    4b6d:	90                   	nop
    4b6e:	90                   	nop
    4b6f:	90                   	nop

0000000000004b70 <_ZN101_$LT$core..ptr..NonNull$LT$T$GT$$u20$as$u20$core..convert..From$LT$core..ptr..Unique$LT$T$GT$$GT$$GT$4from17h24ba16162daac5ddE>:
    4b70:	48 83 ec 10          	sub    $0x10,%rsp
    4b74:	48 89 3c 24          	mov    %rdi,(%rsp)
    4b78:	48 89 7c 24 08       	mov    %rdi,0x8(%rsp)
    4b7d:	48 89 f8             	mov    %rdi,%rax
    4b80:	48 83 c4 10          	add    $0x10,%rsp
    4b84:	c3                   	retq   
    4b85:	90                   	nop
    4b86:	90                   	nop
    4b87:	90                   	nop
    4b88:	90                   	nop
    4b89:	90                   	nop
    4b8a:	90                   	nop
    4b8b:	90                   	nop
    4b8c:	90                   	nop
    4b8d:	90                   	nop
    4b8e:	90                   	nop
    4b8f:	90                   	nop

0000000000004b90 <_ZN36_$LT$core..ptr..NonNull$LT$T$GT$$GT$4cast17hb787b9900d4aae77E>:
    4b90:	50                   	push   %rax
    4b91:	48 89 3c 24          	mov    %rdi,(%rsp)
    4b95:	e8 66 00 00 00       	callq  4c00 <_ZN36_$LT$core..ptr..NonNull$LT$T$GT$$GT$6as_ptr17h26aa647c795e95edE>
    4b9a:	48 89 c7             	mov    %rax,%rdi
    4b9d:	e8 6e 00 00 00       	callq  4c10 <_ZN36_$LT$core..ptr..NonNull$LT$T$GT$$GT$13new_unchecked17h4876b0373bd3658dE>
    4ba2:	59                   	pop    %rcx
    4ba3:	c3                   	retq   
    4ba4:	90                   	nop
    4ba5:	90                   	nop
    4ba6:	90                   	nop
    4ba7:	90                   	nop
    4ba8:	90                   	nop
    4ba9:	90                   	nop
    4baa:	90                   	nop
    4bab:	90                   	nop
    4bac:	90                   	nop
    4bad:	90                   	nop
    4bae:	90                   	nop
    4baf:	90                   	nop

0000000000004bb0 <_ZN59_$LT$alloc..alloc..Global$u20$as$u20$core..alloc..Alloc$GT$7dealloc17h79f31906613139cbE>:
    4bb0:	48 83 ec 28          	sub    $0x28,%rsp
    4bb4:	48 89 7c 24 18       	mov    %rdi,0x18(%rsp)
    4bb9:	48 89 74 24 20       	mov    %rsi,0x20(%rsp)
    4bbe:	48 89 54 24 08       	mov    %rdx,0x8(%rsp)
    4bc3:	48 89 4c 24 10       	mov    %rcx,0x10(%rsp)
    4bc8:	48 89 f7             	mov    %rsi,%rdi
    4bcb:	e8 20 00 00 00       	callq  4bf0 <_ZN36_$LT$core..ptr..NonNull$LT$T$GT$$GT$6as_ptr17h7f49cfce5366bbc1E>
    4bd0:	48 8b 74 24 08       	mov    0x8(%rsp),%rsi
    4bd5:	48 8b 54 24 10       	mov    0x10(%rsp),%rdx
    4bda:	48 89 c7             	mov    %rax,%rdi
    4bdd:	e8 ee fd ff ff       	callq  49d0 <_ZN5alloc5alloc7dealloc17h14111ec4ad5f75b7E>
    4be2:	48 83 c4 28          	add    $0x28,%rsp
    4be6:	c3                   	retq   
    4be7:	90                   	nop
    4be8:	90                   	nop
    4be9:	90                   	nop
    4bea:	90                   	nop
    4beb:	90                   	nop
    4bec:	90                   	nop
    4bed:	90                   	nop
    4bee:	90                   	nop
    4bef:	90                   	nop

0000000000004bf0 <_ZN36_$LT$core..ptr..NonNull$LT$T$GT$$GT$6as_ptr17h7f49cfce5366bbc1E>:
    4bf0:	50                   	push   %rax
    4bf1:	48 89 3c 24          	mov    %rdi,(%rsp)
    4bf5:	48 89 f8             	mov    %rdi,%rax
    4bf8:	59                   	pop    %rcx
    4bf9:	c3                   	retq   
    4bfa:	90                   	nop
    4bfb:	90                   	nop
    4bfc:	90                   	nop
    4bfd:	90                   	nop
    4bfe:	90                   	nop
    4bff:	90                   	nop

0000000000004c00 <_ZN36_$LT$core..ptr..NonNull$LT$T$GT$$GT$6as_ptr17h26aa647c795e95edE>:
    4c00:	50                   	push   %rax
    4c01:	48 89 3c 24          	mov    %rdi,(%rsp)
    4c05:	48 89 f8             	mov    %rdi,%rax
    4c08:	59                   	pop    %rcx
    4c09:	c3                   	retq   
    4c0a:	90                   	nop
    4c0b:	90                   	nop
    4c0c:	90                   	nop
    4c0d:	90                   	nop
    4c0e:	90                   	nop
    4c0f:	90                   	nop

0000000000004c10 <_ZN36_$LT$core..ptr..NonNull$LT$T$GT$$GT$13new_unchecked17h4876b0373bd3658dE>:
    4c10:	48 83 ec 18          	sub    $0x18,%rsp
    4c14:	48 89 3c 24          	mov    %rdi,(%rsp)
    4c18:	48 89 7c 24 10       	mov    %rdi,0x10(%rsp)
    4c1d:	48 89 7c 24 08       	mov    %rdi,0x8(%rsp)
    4c22:	48 89 f8             	mov    %rdi,%rax
    4c25:	48 83 c4 18          	add    $0x18,%rsp
    4c29:	c3                   	retq   
    4c2a:	90                   	nop
    4c2b:	90                   	nop
    4c2c:	90                   	nop
    4c2d:	90                   	nop
    4c2e:	90                   	nop
    4c2f:	90                   	nop

0000000000004c30 <_ZN4core3mem8align_of17ha9315799a7f622c6E>:
    4c30:	50                   	push   %rax
    4c31:	48 c7 04 24 04 00 00 	movq   $0x4,(%rsp)
    4c38:	00 
    4c39:	b8 04 00 00 00       	mov    $0x4,%eax
    4c3e:	59                   	pop    %rcx
    4c3f:	c3                   	retq   

0000000000004c40 <_ZN80_$LT$alloc..vec..Vec$LT$T$GT$$u20$as$u20$core..ops..index..IndexMut$LT$I$GT$$GT$9index_mut17h713a486075b9a469E>:
    4c40:	48 83 ec 28          	sub    $0x28,%rsp
    4c44:	48 89 7c 24 18       	mov    %rdi,0x18(%rsp)
    4c49:	c6 44 24 07 01       	movb   $0x1,0x7(%rsp)
    4c4e:	e8 9d fb ff ff       	callq  47f0 <_ZN71_$LT$alloc..vec..Vec$LT$T$GT$$u20$as$u20$core..ops..deref..DerefMut$GT$9deref_mut17hc288ebb429141c02E>
    4c53:	c6 44 24 07 00       	movb   $0x0,0x7(%rsp)
    4c58:	48 89 c7             	mov    %rax,%rdi
    4c5b:	48 89 d6             	mov    %rdx,%rsi
    4c5e:	e8 3d 00 00 00       	callq  4ca0 <_ZN4core5slice77_$LT$impl$u20$core..ops..index..IndexMut$LT$I$GT$$u20$for$u20$$u5b$T$u5d$$GT$9index_mut17haaa2f8a0f0582a9bE>
    4c63:	48 83 c4 28          	add    $0x28,%rsp
    4c67:	c3                   	retq   
    4c68:	48 89 44 24 08       	mov    %rax,0x8(%rsp)
    4c6d:	89 54 24 10          	mov    %edx,0x10(%rsp)
    4c71:	80 7c 24 07 00       	cmpb   $0x0,0x7(%rsp)
    4c76:	74 0f                	je     4c87 <_ZN80_$LT$alloc..vec..Vec$LT$T$GT$$u20$as$u20$core..ops..index..IndexMut$LT$I$GT$$GT$9index_mut17h713a486075b9a469E+0x47>
    4c78:	c6 44 24 07 00       	movb   $0x0,0x7(%rsp)
    4c7d:	48 8b 7c 24 08       	mov    0x8(%rsp),%rdi
    4c82:	e8 b9 f1 ff ff       	callq  3e40 <_Unwind_Resume@plt>
    4c87:	48 8b 7c 24 08       	mov    0x8(%rsp),%rdi
    4c8c:	e8 af f1 ff ff       	callq  3e40 <_Unwind_Resume@plt>
    4c91:	90                   	nop
    4c92:	90                   	nop
    4c93:	90                   	nop
    4c94:	90                   	nop
    4c95:	90                   	nop
    4c96:	90                   	nop
    4c97:	90                   	nop
    4c98:	90                   	nop
    4c99:	90                   	nop
    4c9a:	90                   	nop
    4c9b:	90                   	nop
    4c9c:	90                   	nop
    4c9d:	90                   	nop
    4c9e:	90                   	nop
    4c9f:	90                   	nop

0000000000004ca0 <_ZN4core5slice77_$LT$impl$u20$core..ops..index..IndexMut$LT$I$GT$$u20$for$u20$$u5b$T$u5d$$GT$9index_mut17haaa2f8a0f0582a9bE>:
    4ca0:	48 83 ec 18          	sub    $0x18,%rsp
    4ca4:	48 89 3c 24          	mov    %rdi,(%rsp)
    4ca8:	48 89 74 24 08       	mov    %rsi,0x8(%rsp)
    4cad:	e8 0e 00 00 00       	callq  4cc0 <_ZN90_$LT$core..ops..range..RangeFull$u20$as$u20$core..slice..SliceIndex$LT$$u5b$T$u5d$$GT$$GT$9index_mut17h919f29e6c43869e6E>
    4cb2:	48 83 c4 18          	add    $0x18,%rsp
    4cb6:	c3                   	retq   
    4cb7:	90                   	nop
    4cb8:	90                   	nop
    4cb9:	90                   	nop
    4cba:	90                   	nop
    4cbb:	90                   	nop
    4cbc:	90                   	nop
    4cbd:	90                   	nop
    4cbe:	90                   	nop
    4cbf:	90                   	nop

0000000000004cc0 <_ZN90_$LT$core..ops..range..RangeFull$u20$as$u20$core..slice..SliceIndex$LT$$u5b$T$u5d$$GT$$GT$9index_mut17h919f29e6c43869e6E>:
    4cc0:	48 83 ec 18          	sub    $0x18,%rsp
    4cc4:	48 89 3c 24          	mov    %rdi,(%rsp)
    4cc8:	48 89 74 24 08       	mov    %rsi,0x8(%rsp)
    4ccd:	48 89 f8             	mov    %rdi,%rax
    4cd0:	48 89 f2             	mov    %rsi,%rdx
    4cd3:	48 83 c4 18          	add    $0x18,%rsp
    4cd7:	c3                   	retq   
    4cd8:	90                   	nop
    4cd9:	90                   	nop
    4cda:	90                   	nop
    4cdb:	90                   	nop
    4cdc:	90                   	nop
    4cdd:	90                   	nop
    4cde:	90                   	nop
    4cdf:	90                   	nop

0000000000004ce0 <_ZN5alloc5alloc5alloc17hb7783377ccc74b55E>:
    4ce0:	41 56                	push   %r14
    4ce2:	53                   	push   %rbx
    4ce3:	48 83 ec 18          	sub    $0x18,%rsp
    4ce7:	48 89 7c 24 08       	mov    %rdi,0x8(%rsp)
    4cec:	48 89 74 24 10       	mov    %rsi,0x10(%rsp)
    4cf1:	4c 8d 74 24 08       	lea    0x8(%rsp),%r14
    4cf6:	4c 89 f7             	mov    %r14,%rdi
    4cf9:	e8 22 fd ff ff       	callq  4a20 <_ZN4core5alloc6Layout4size17hb82d1e09cf903eeaE>
    4cfe:	48 89 c3             	mov    %rax,%rbx
    4d01:	4c 89 f7             	mov    %r14,%rdi
    4d04:	e8 27 fd ff ff       	callq  4a30 <_ZN4core5alloc6Layout5align17hccbc098d0051d148E>
    4d09:	48 89 df             	mov    %rbx,%rdi
    4d0c:	48 89 c6             	mov    %rax,%rsi
    4d0f:	e8 0c 09 00 00       	callq  5620 <__rust_alloc>
    4d14:	48 83 c4 18          	add    $0x18,%rsp
    4d18:	5b                   	pop    %rbx
    4d19:	41 5e                	pop    %r14
    4d1b:	c3                   	retq   
    4d1c:	90                   	nop
    4d1d:	90                   	nop
    4d1e:	90                   	nop
    4d1f:	90                   	nop

0000000000004d20 <_ZN4core3ptr31_$LT$impl$u20$$BP$mut$u20$T$GT$7is_null17h0beb2dbbe31f45e5E>:
    4d20:	53                   	push   %rbx
    4d21:	48 83 ec 10          	sub    $0x10,%rsp
    4d25:	48 89 fb             	mov    %rdi,%rbx
    4d28:	48 89 7c 24 08       	mov    %rdi,0x8(%rsp)
    4d2d:	e8 5e fb ff ff       	callq  4890 <_ZN4core3ptr8null_mut17h98beb488a1994ed5E>
    4d32:	48 39 c3             	cmp    %rax,%rbx
    4d35:	0f 94 c0             	sete   %al
    4d38:	48 83 c4 10          	add    $0x10,%rsp
    4d3c:	5b                   	pop    %rbx
    4d3d:	c3                   	retq   
    4d3e:	90                   	nop
    4d3f:	90                   	nop

0000000000004d40 <_ZN40_$LT$alloc..raw_vec..RawVec$LT$T$GT$$GT$20unsafe_with_capacity17h105c44010ed56bedE>:
    4d40:	48 83 ec 18          	sub    $0x18,%rsp
    4d44:	48 89 7c 24 08       	mov    %rdi,0x8(%rsp)
    4d49:	31 f6                	xor    %esi,%esi
    4d4b:	e8 10 00 00 00       	callq  4d60 <_ZN49_$LT$alloc..raw_vec..RawVec$LT$T$C$$u20$A$GT$$GT$18unsafe_allocate_in17h47ece2a96893fdd8E>
    4d50:	48 83 c4 18          	add    $0x18,%rsp
    4d54:	c3                   	retq   
    4d55:	90                   	nop
    4d56:	90                   	nop
    4d57:	90                   	nop
    4d58:	90                   	nop
    4d59:	90                   	nop
    4d5a:	90                   	nop
    4d5b:	90                   	nop
    4d5c:	90                   	nop
    4d5d:	90                   	nop
    4d5e:	90                   	nop
    4d5f:	90                   	nop

0000000000004d60 <_ZN49_$LT$alloc..raw_vec..RawVec$LT$T$C$$u20$A$GT$$GT$18unsafe_allocate_in17h47ece2a96893fdd8E>:
    4d60:	48 81 ec 88 00 00 00 	sub    $0x88,%rsp
    4d67:	48 89 7c 24 20       	mov    %rdi,0x20(%rsp)
    4d6c:	40 88 74 24 07       	mov    %sil,0x7(%rsp)
    4d71:	e8 7a fb ff ff       	callq  48f0 <_ZN4core3mem7size_of17hd4678e014d757a21E>
    4d76:	48 89 44 24 48       	mov    %rax,0x48(%rsp)
    4d7b:	48 8b 7c 24 20       	mov    0x20(%rsp),%rdi
    4d80:	48 89 c6             	mov    %rax,%rsi
    4d83:	e8 f8 00 00 00       	callq  4e80 <_ZN4core3num23_$LT$impl$u20$usize$GT$11checked_mul17h82d3b7319331d999E>
    4d88:	48 89 c7             	mov    %rax,%rdi
    4d8b:	48 89 d6             	mov    %rdx,%rsi
    4d8e:	e8 3d 01 00 00       	callq  4ed0 <_ZN38_$LT$core..option..Option$LT$T$GT$$GT$14unwrap_or_else17h77f79f29367790e9E>
    4d93:	48 89 44 24 28       	mov    %rax,0x28(%rsp)
    4d98:	48 89 c7             	mov    %rax,%rdi
    4d9b:	e8 e0 01 00 00       	callq  4f80 <_ZN5alloc7raw_vec11alloc_guard17h1f3bcf360a18f200E>
    4da0:	0f b6 f8             	movzbl %al,%edi
    4da3:	e8 28 02 00 00       	callq  4fd0 <_ZN47_$LT$core..result..Result$LT$T$C$$u20$E$GT$$GT$14unwrap_or_else17h39c25194e59558f9E>
    4da8:	48 83 7c 24 28 00    	cmpq   $0x0,0x28(%rsp)
    4dae:	74 47                	je     4df7 <_ZN49_$LT$alloc..raw_vec..RawVec$LT$T$C$$u20$A$GT$$GT$18unsafe_allocate_in17h47ece2a96893fdd8E+0x97>
    4db0:	e8 7b fe ff ff       	callq  4c30 <_ZN4core3mem8align_of17ha9315799a7f622c6E>
    4db5:	48 89 44 24 50       	mov    %rax,0x50(%rsp)
    4dba:	48 8b 7c 24 28       	mov    0x28(%rsp),%rdi
    4dbf:	48 89 c6             	mov    %rax,%rsi
    4dc2:	e8 f9 02 00 00       	callq  50c0 <_ZN4core5alloc6Layout15from_size_align17h33f5d1384659db61E>
    4dc7:	48 89 c7             	mov    %rax,%rdi
    4dca:	48 89 d6             	mov    %rdx,%rsi
    4dcd:	e8 4e 03 00 00       	callq  5120 <_ZN47_$LT$core..result..Result$LT$T$C$$u20$E$GT$$GT$6unwrap17h0cb44e4e2831a163E>
    4dd2:	48 89 44 24 10       	mov    %rax,0x10(%rsp)
    4dd7:	48 89 54 24 18       	mov    %rdx,0x18(%rsp)
    4ddc:	80 7c 24 07 01       	cmpb   $0x1,0x7(%rsp)
    4de1:	75 1b                	jne    4dfe <_ZN49_$LT$alloc..raw_vec..RawVec$LT$T$C$$u20$A$GT$$GT$18unsafe_allocate_in17h47ece2a96893fdd8E+0x9e>
    4de3:	48 8b 74 24 10       	mov    0x10(%rsp),%rsi
    4de8:	48 8b 54 24 18       	mov    0x18(%rsp),%rdx
    4ded:	48 89 e7             	mov    %rsp,%rdi
    4df0:	e8 8b 03 00 00       	callq  5180 <_ZN59_$LT$alloc..alloc..Global$u20$as$u20$core..alloc..Alloc$GT$19unsafe_alloc_zeroed17hceca790b1e59ae25E>
    4df5:	eb 19                	jmp    4e10 <_ZN49_$LT$alloc..raw_vec..RawVec$LT$T$C$$u20$A$GT$$GT$18unsafe_allocate_in17h47ece2a96893fdd8E+0xb0>
    4df7:	e8 a4 02 00 00       	callq  50a0 <_ZN36_$LT$core..ptr..NonNull$LT$T$GT$$GT$8dangling17h1597d8448bc26f01E>
    4dfc:	eb 38                	jmp    4e36 <_ZN49_$LT$alloc..raw_vec..RawVec$LT$T$C$$u20$A$GT$$GT$18unsafe_allocate_in17h47ece2a96893fdd8E+0xd6>
    4dfe:	48 8b 74 24 10       	mov    0x10(%rsp),%rsi
    4e03:	48 8b 54 24 18       	mov    0x18(%rsp),%rdx
    4e08:	48 89 e7             	mov    %rsp,%rdi
    4e0b:	e8 b0 03 00 00       	callq  51c0 <_ZN59_$LT$alloc..alloc..Global$u20$as$u20$core..alloc..Alloc$GT$12unsafe_alloc17h9738923f5eb35341E>
    4e10:	48 89 44 24 08       	mov    %rax,0x8(%rsp)
    4e15:	48 83 7c 24 08 00    	cmpq   $0x0,0x8(%rsp)
    4e1b:	48 8d 44 24 08       	lea    0x8(%rsp),%rax
    4e20:	48 89 44 24 58       	mov    %rax,0x58(%rsp)
    4e25:	74 35                	je     4e5c <_ZN49_$LT$alloc..raw_vec..RawVec$LT$T$C$$u20$A$GT$$GT$18unsafe_allocate_in17h47ece2a96893fdd8E+0xfc>
    4e27:	48 8b 7c 24 08       	mov    0x8(%rsp),%rdi
    4e2c:	48 89 7c 24 60       	mov    %rdi,0x60(%rsp)
    4e31:	e8 ca 03 00 00       	callq  5200 <_ZN36_$LT$core..ptr..NonNull$LT$T$GT$$GT$4cast17h3c590c2d917d02d7E>
    4e36:	48 89 44 24 30       	mov    %rax,0x30(%rsp)
    4e3b:	48 8b 7c 24 30       	mov    0x30(%rsp),%rdi
    4e40:	e8 db 03 00 00       	callq  5220 <_ZN50_$LT$T$u20$as$u20$core..convert..Into$LT$U$GT$$GT$4into17h9d594876fe872070E>
    4e45:	48 8b 54 24 20       	mov    0x20(%rsp),%rdx
    4e4a:	48 89 44 24 38       	mov    %rax,0x38(%rsp)
    4e4f:	48 89 54 24 40       	mov    %rdx,0x40(%rsp)
    4e54:	48 81 c4 88 00 00 00 	add    $0x88,%rsp
    4e5b:	c3                   	retq   
    4e5c:	48 8b 7c 24 10       	mov    0x10(%rsp),%rdi
    4e61:	48 8b 74 24 18       	mov    0x18(%rsp),%rsi
    4e66:	e8 c5 ca 01 00       	callq  21930 <_ZN5alloc5alloc18handle_alloc_error17hb8f8a0e42d4fb5daE>
    4e6b:	48 89 44 24 68       	mov    %rax,0x68(%rsp)
    4e70:	89 54 24 70          	mov    %edx,0x70(%rsp)
    4e74:	48 89 c7             	mov    %rax,%rdi
    4e77:	e8 c4 ef ff ff       	callq  3e40 <_Unwind_Resume@plt>
    4e7c:	90                   	nop
    4e7d:	90                   	nop
    4e7e:	90                   	nop
    4e7f:	90                   	nop

0000000000004e80 <_ZN4core3num23_$LT$impl$u20$usize$GT$11checked_mul17h82d3b7319331d999E>:
    4e80:	48 83 ec 38          	sub    $0x38,%rsp
    4e84:	48 89 7c 24 28       	mov    %rdi,0x28(%rsp)
    4e89:	48 89 74 24 30       	mov    %rsi,0x30(%rsp)
    4e8e:	e8 0d 07 00 00       	callq  55a0 <_ZN4core3num23_$LT$impl$u20$usize$GT$15overflowing_mul17hc2c797b8f28726c4E>
    4e93:	48 89 44 24 20       	mov    %rax,0x20(%rsp)
    4e98:	80 e2 01             	and    $0x1,%dl
    4e9b:	88 54 24 0f          	mov    %dl,0xf(%rsp)
    4e9f:	74 0b                	je     4eac <_ZN4core3num23_$LT$impl$u20$usize$GT$11checked_mul17h82d3b7319331d999E+0x2c>
    4ea1:	48 c7 44 24 10 00 00 	movq   $0x0,0x10(%rsp)
    4ea8:	00 00 
    4eaa:	eb 13                	jmp    4ebf <_ZN4core3num23_$LT$impl$u20$usize$GT$11checked_mul17h82d3b7319331d999E+0x3f>
    4eac:	48 8b 44 24 20       	mov    0x20(%rsp),%rax
    4eb1:	48 89 44 24 18       	mov    %rax,0x18(%rsp)
    4eb6:	48 c7 44 24 10 01 00 	movq   $0x1,0x10(%rsp)
    4ebd:	00 00 
    4ebf:	48 8b 44 24 10       	mov    0x10(%rsp),%rax
    4ec4:	48 8b 54 24 18       	mov    0x18(%rsp),%rdx
    4ec9:	48 83 c4 38          	add    $0x38,%rsp
    4ecd:	c3                   	retq   
    4ece:	90                   	nop
    4ecf:	90                   	nop

0000000000004ed0 <_ZN38_$LT$core..option..Option$LT$T$GT$$GT$14unwrap_or_else17h77f79f29367790e9E>:
    4ed0:	48 83 ec 58          	sub    $0x58,%rsp
    4ed4:	48 89 7c 24 10       	mov    %rdi,0x10(%rsp)
    4ed9:	48 89 74 24 18       	mov    %rsi,0x18(%rsp)
    4ede:	c6 44 24 0e 01       	movb   $0x1,0xe(%rsp)
    4ee3:	c6 44 24 0f 01       	movb   $0x1,0xf(%rsp)
    4ee8:	48 8d 44 24 10       	lea    0x10(%rsp),%rax
    4eed:	48 89 44 24 38       	mov    %rax,0x38(%rsp)
    4ef2:	48 83 ff 01          	cmp    $0x1,%rdi
    4ef6:	75 11                	jne    4f09 <_ZN38_$LT$core..option..Option$LT$T$GT$$GT$14unwrap_or_else17h77f79f29367790e9E+0x39>
    4ef8:	c6 44 24 0e 00       	movb   $0x0,0xe(%rsp)
    4efd:	48 8b 44 24 18       	mov    0x18(%rsp),%rax
    4f02:	48 89 44 24 40       	mov    %rax,0x40(%rsp)
    4f07:	eb 0a                	jmp    4f13 <_ZN38_$LT$core..option..Option$LT$T$GT$$GT$14unwrap_or_else17h77f79f29367790e9E+0x43>
    4f09:	c6 44 24 0f 00       	movb   $0x0,0xf(%rsp)
    4f0e:	e8 7d 06 00 00       	callq  5590 <_ZN49_$LT$alloc..raw_vec..RawVec$LT$T$C$$u20$A$GT$$GT$18unsafe_allocate_in28_$u7b$$u7b$closure$u7d$$u7d$17hd9bcb5d1512f9e48E>
    4f13:	48 89 44 24 20       	mov    %rax,0x20(%rsp)
    4f18:	80 7c 24 0f 00       	cmpb   $0x0,0xf(%rsp)
    4f1d:	74 05                	je     4f24 <_ZN38_$LT$core..option..Option$LT$T$GT$$GT$14unwrap_or_else17h77f79f29367790e9E+0x54>
    4f1f:	c6 44 24 0f 00       	movb   $0x0,0xf(%rsp)
    4f24:	48 83 7c 24 10 01    	cmpq   $0x1,0x10(%rsp)
    4f2a:	75 0c                	jne    4f38 <_ZN38_$LT$core..option..Option$LT$T$GT$$GT$14unwrap_or_else17h77f79f29367790e9E+0x68>
    4f2c:	80 7c 24 0e 01       	cmpb   $0x1,0xe(%rsp)
    4f31:	75 05                	jne    4f38 <_ZN38_$LT$core..option..Option$LT$T$GT$$GT$14unwrap_or_else17h77f79f29367790e9E+0x68>
    4f33:	c6 44 24 0e 00       	movb   $0x0,0xe(%rsp)
    4f38:	48 8b 44 24 20       	mov    0x20(%rsp),%rax
    4f3d:	48 83 c4 58          	add    $0x58,%rsp
    4f41:	c3                   	retq   
    4f42:	48 89 44 24 28       	mov    %rax,0x28(%rsp)
    4f47:	89 54 24 30          	mov    %edx,0x30(%rsp)
    4f4b:	48 83 7c 24 10 01    	cmpq   $0x1,0x10(%rsp)
    4f51:	75 16                	jne    4f69 <_ZN38_$LT$core..option..Option$LT$T$GT$$GT$14unwrap_or_else17h77f79f29367790e9E+0x99>
    4f53:	80 7c 24 0e 01       	cmpb   $0x1,0xe(%rsp)
    4f58:	75 0f                	jne    4f69 <_ZN38_$LT$core..option..Option$LT$T$GT$$GT$14unwrap_or_else17h77f79f29367790e9E+0x99>
    4f5a:	c6 44 24 0e 00       	movb   $0x0,0xe(%rsp)
    4f5f:	48 8b 7c 24 28       	mov    0x28(%rsp),%rdi
    4f64:	e8 d7 ee ff ff       	callq  3e40 <_Unwind_Resume@plt>
    4f69:	48 8b 7c 24 28       	mov    0x28(%rsp),%rdi
    4f6e:	e8 cd ee ff ff       	callq  3e40 <_Unwind_Resume@plt>
    4f73:	90                   	nop
    4f74:	90                   	nop
    4f75:	90                   	nop
    4f76:	90                   	nop
    4f77:	90                   	nop
    4f78:	90                   	nop
    4f79:	90                   	nop
    4f7a:	90                   	nop
    4f7b:	90                   	nop
    4f7c:	90                   	nop
    4f7d:	90                   	nop
    4f7e:	90                   	nop
    4f7f:	90                   	nop

0000000000004f80 <_ZN5alloc7raw_vec11alloc_guard17h1f3bcf360a18f200E>:
    4f80:	48 83 ec 18          	sub    $0x18,%rsp
    4f84:	48 89 7c 24 08       	mov    %rdi,0x8(%rsp)
    4f89:	e8 f2 05 00 00       	callq  5580 <_ZN4core3mem7size_of17hedc7bca014ba858aE>
    4f8e:	48 83 f8 08          	cmp    $0x8,%rax
    4f92:	73 1b                	jae    4faf <_ZN5alloc7raw_vec11alloc_guard17h1f3bcf360a18f200E+0x2f>
    4f94:	48 83 7c 24 08 00    	cmpq   $0x0,0x8(%rsp)
    4f9a:	79 13                	jns    4faf <_ZN5alloc7raw_vec11alloc_guard17h1f3bcf360a18f200E+0x2f>
    4f9c:	c6 44 24 06 01       	movb   $0x1,0x6(%rsp)
    4fa1:	80 7c 24 06 01       	cmpb   $0x1,0x6(%rsp)
    4fa6:	74 13                	je     4fbb <_ZN5alloc7raw_vec11alloc_guard17h1f3bcf360a18f200E+0x3b>
    4fa8:	c6 44 24 05 02       	movb   $0x2,0x5(%rsp)
    4fad:	eb 16                	jmp    4fc5 <_ZN5alloc7raw_vec11alloc_guard17h1f3bcf360a18f200E+0x45>
    4faf:	c6 44 24 06 00       	movb   $0x0,0x6(%rsp)
    4fb4:	80 7c 24 06 01       	cmpb   $0x1,0x6(%rsp)
    4fb9:	75 ed                	jne    4fa8 <_ZN5alloc7raw_vec11alloc_guard17h1f3bcf360a18f200E+0x28>
    4fbb:	c6 44 24 07 00       	movb   $0x0,0x7(%rsp)
    4fc0:	c6 44 24 05 00       	movb   $0x0,0x5(%rsp)
    4fc5:	8a 44 24 05          	mov    0x5(%rsp),%al
    4fc9:	48 83 c4 18          	add    $0x18,%rsp
    4fcd:	c3                   	retq   
    4fce:	90                   	nop
    4fcf:	90                   	nop

0000000000004fd0 <_ZN47_$LT$core..result..Result$LT$T$C$$u20$E$GT$$GT$14unwrap_or_else17h39c25194e59558f9E>:
    4fd0:	48 83 ec 38          	sub    $0x38,%rsp
    4fd4:	40 88 7c 24 04       	mov    %dil,0x4(%rsp)
    4fd9:	c6 44 24 02 01       	movb   $0x1,0x2(%rsp)
    4fde:	c6 44 24 03 01       	movb   $0x1,0x3(%rsp)
    4fe3:	c6 44 24 05 01       	movb   $0x1,0x5(%rsp)
    4fe8:	48 8d 44 24 04       	lea    0x4(%rsp),%rax
    4fed:	48 89 44 24 18       	mov    %rax,0x18(%rsp)
    4ff2:	40 80 ff 02          	cmp    $0x2,%dil
    4ff6:	74 41                	je     5039 <_ZN47_$LT$core..result..Result$LT$T$C$$u20$E$GT$$GT$14unwrap_or_else17h39c25194e59558f9E+0x69>
    4ff8:	c6 44 24 02 00       	movb   $0x0,0x2(%rsp)
    4ffd:	8a 44 24 04          	mov    0x4(%rsp),%al
    5001:	88 44 24 07          	mov    %al,0x7(%rsp)
    5005:	c6 44 24 05 00       	movb   $0x0,0x5(%rsp)
    500a:	88 44 24 06          	mov    %al,0x6(%rsp)
    500e:	0f b6 7c 24 06       	movzbl 0x6(%rsp),%edi
    5013:	e8 58 05 00 00       	callq  5570 <_ZN49_$LT$alloc..raw_vec..RawVec$LT$T$C$$u20$A$GT$$GT$18unsafe_allocate_in28_$u7b$$u7b$closure$u7d$$u7d$17h583f7f0a6dd80dcbE>
    5018:	80 7c 24 05 00       	cmpb   $0x0,0x5(%rsp)
    501d:	74 05                	je     5024 <_ZN47_$LT$core..result..Result$LT$T$C$$u20$E$GT$$GT$14unwrap_or_else17h39c25194e59558f9E+0x54>
    501f:	c6 44 24 05 00       	movb   $0x0,0x5(%rsp)
    5024:	80 7c 24 04 02       	cmpb   $0x2,0x4(%rsp)
    5029:	74 1c                	je     5047 <_ZN47_$LT$core..result..Result$LT$T$C$$u20$E$GT$$GT$14unwrap_or_else17h39c25194e59558f9E+0x77>
    502b:	80 7c 24 02 01       	cmpb   $0x1,0x2(%rsp)
    5030:	75 26                	jne    5058 <_ZN47_$LT$core..result..Result$LT$T$C$$u20$E$GT$$GT$14unwrap_or_else17h39c25194e59558f9E+0x88>
    5032:	c6 44 24 02 00       	movb   $0x0,0x2(%rsp)
    5037:	eb 1f                	jmp    5058 <_ZN47_$LT$core..result..Result$LT$T$C$$u20$E$GT$$GT$14unwrap_or_else17h39c25194e59558f9E+0x88>
    5039:	c6 44 24 03 00       	movb   $0x0,0x3(%rsp)
    503e:	80 7c 24 05 00       	cmpb   $0x0,0x5(%rsp)
    5043:	75 da                	jne    501f <_ZN47_$LT$core..result..Result$LT$T$C$$u20$E$GT$$GT$14unwrap_or_else17h39c25194e59558f9E+0x4f>
    5045:	eb dd                	jmp    5024 <_ZN47_$LT$core..result..Result$LT$T$C$$u20$E$GT$$GT$14unwrap_or_else17h39c25194e59558f9E+0x54>
    5047:	80 7c 24 03 01       	cmpb   $0x1,0x3(%rsp)
    504c:	75 0a                	jne    5058 <_ZN47_$LT$core..result..Result$LT$T$C$$u20$E$GT$$GT$14unwrap_or_else17h39c25194e59558f9E+0x88>
    504e:	c6 44 24 03 00       	movb   $0x0,0x3(%rsp)
    5053:	48 83 c4 38          	add    $0x38,%rsp
    5057:	c3                   	retq   
    5058:	48 83 c4 38          	add    $0x38,%rsp
    505c:	c3                   	retq   
    505d:	48 89 44 24 08       	mov    %rax,0x8(%rsp)
    5062:	89 54 24 10          	mov    %edx,0x10(%rsp)
    5066:	80 7c 24 04 02       	cmpb   $0x2,0x4(%rsp)
    506b:	75 16                	jne    5083 <_ZN47_$LT$core..result..Result$LT$T$C$$u20$E$GT$$GT$14unwrap_or_else17h39c25194e59558f9E+0xb3>
    506d:	80 7c 24 03 01       	cmpb   $0x1,0x3(%rsp)
    5072:	75 1b                	jne    508f <_ZN47_$LT$core..result..Result$LT$T$C$$u20$E$GT$$GT$14unwrap_or_else17h39c25194e59558f9E+0xbf>
    5074:	c6 44 24 03 00       	movb   $0x0,0x3(%rsp)
    5079:	48 8b 7c 24 08       	mov    0x8(%rsp),%rdi
    507e:	e8 bd ed ff ff       	callq  3e40 <_Unwind_Resume@plt>
    5083:	80 7c 24 02 01       	cmpb   $0x1,0x2(%rsp)
    5088:	75 05                	jne    508f <_ZN47_$LT$core..result..Result$LT$T$C$$u20$E$GT$$GT$14unwrap_or_else17h39c25194e59558f9E+0xbf>
    508a:	c6 44 24 02 00       	movb   $0x0,0x2(%rsp)
    508f:	48 8b 7c 24 08       	mov    0x8(%rsp),%rdi
    5094:	e8 a7 ed ff ff       	callq  3e40 <_Unwind_Resume@plt>
    5099:	90                   	nop
    509a:	90                   	nop
    509b:	90                   	nop
    509c:	90                   	nop
    509d:	90                   	nop
    509e:	90                   	nop
    509f:	90                   	nop

00000000000050a0 <_ZN36_$LT$core..ptr..NonNull$LT$T$GT$$GT$8dangling17h1597d8448bc26f01E>:
    50a0:	50                   	push   %rax
    50a1:	e8 8a fb ff ff       	callq  4c30 <_ZN4core3mem8align_of17ha9315799a7f622c6E>
    50a6:	48 89 04 24          	mov    %rax,(%rsp)
    50aa:	48 89 c7             	mov    %rax,%rdi
    50ad:	e8 9e 01 00 00       	callq  5250 <_ZN36_$LT$core..ptr..NonNull$LT$T$GT$$GT$13new_unchecked17heba5996e75be4334E>
    50b2:	59                   	pop    %rcx
    50b3:	c3                   	retq   
    50b4:	90                   	nop
    50b5:	90                   	nop
    50b6:	90                   	nop
    50b7:	90                   	nop
    50b8:	90                   	nop
    50b9:	90                   	nop
    50ba:	90                   	nop
    50bb:	90                   	nop
    50bc:	90                   	nop
    50bd:	90                   	nop
    50be:	90                   	nop
    50bf:	90                   	nop

00000000000050c0 <_ZN4core5alloc6Layout15from_size_align17h33f5d1384659db61E>:
    50c0:	48 83 ec 48          	sub    $0x48,%rsp
    50c4:	48 89 7c 24 08       	mov    %rdi,0x8(%rsp)
    50c9:	48 89 74 24 10       	mov    %rsi,0x10(%rsp)
    50ce:	48 89 f7             	mov    %rsi,%rdi
    50d1:	e8 3a 04 00 00       	callq  5510 <_ZN4core3num23_$LT$impl$u20$usize$GT$15is_power_of_two17h49f24a0e607efbbfE>
    50d6:	84 c0                	test   %al,%al
    50d8:	74 12                	je     50ec <_ZN4core5alloc6Layout15from_size_align17h33f5d1384659db61E+0x2c>
    50da:	48 8b 44 24 10       	mov    0x10(%rsp),%rax
    50df:	48 ff c8             	dec    %rax
    50e2:	48 f7 d0             	not    %rax
    50e5:	48 39 44 24 08       	cmp    %rax,0x8(%rsp)
    50ea:	76 0b                	jbe    50f7 <_ZN4core5alloc6Layout15from_size_align17h33f5d1384659db61E+0x37>
    50ec:	48 c7 44 24 20 00 00 	movq   $0x0,0x20(%rsp)
    50f3:	00 00 
    50f5:	eb 19                	jmp    5110 <_ZN4core5alloc6Layout15from_size_align17h33f5d1384659db61E+0x50>
    50f7:	48 8b 7c 24 08       	mov    0x8(%rsp),%rdi
    50fc:	48 8b 74 24 10       	mov    0x10(%rsp),%rsi
    5101:	e8 ca f0 ff ff       	callq  41d0 <_ZN4core5alloc6Layout25from_size_align_unchecked17h5df097b65d175720E>
    5106:	48 89 44 24 18       	mov    %rax,0x18(%rsp)
    510b:	48 89 54 24 20       	mov    %rdx,0x20(%rsp)
    5110:	48 8b 44 24 18       	mov    0x18(%rsp),%rax
    5115:	48 8b 54 24 20       	mov    0x20(%rsp),%rdx
    511a:	48 83 c4 48          	add    $0x48,%rsp
    511e:	c3                   	retq   
    511f:	90                   	nop

0000000000005120 <_ZN47_$LT$core..result..Result$LT$T$C$$u20$E$GT$$GT$6unwrap17h0cb44e4e2831a163E>:
    5120:	48 83 ec 48          	sub    $0x48,%rsp
    5124:	48 89 7c 24 08       	mov    %rdi,0x8(%rsp)
    5129:	48 89 74 24 10       	mov    %rsi,0x10(%rsp)
    512e:	48 85 f6             	test   %rsi,%rsi
    5131:	48 8d 44 24 08       	lea    0x8(%rsp),%rax
    5136:	48 89 44 24 18       	mov    %rax,0x18(%rsp)
    513b:	74 19                	je     5156 <_ZN47_$LT$core..result..Result$LT$T$C$$u20$E$GT$$GT$6unwrap17h0cb44e4e2831a163E+0x36>
    513d:	48 8b 44 24 08       	mov    0x8(%rsp),%rax
    5142:	48 8b 54 24 10       	mov    0x10(%rsp),%rdx
    5147:	48 89 44 24 20       	mov    %rax,0x20(%rsp)
    514c:	48 89 54 24 28       	mov    %rdx,0x28(%rsp)
    5151:	48 83 c4 48          	add    $0x48,%rsp
    5155:	c3                   	retq   
    5156:	48 8d 3d 83 26 02 00 	lea    0x22683(%rip),%rdi        # 277e0 <_ZN4play6GLOBAL17h6391985a871b6f5eE+0xa0>
    515d:	be 2b 00 00 00       	mov    $0x2b,%esi
    5162:	e8 49 02 00 00       	callq  53b0 <_ZN4core6result13unwrap_failed17h7d82ab50ba9a202cE>
    5167:	48 89 44 24 30       	mov    %rax,0x30(%rsp)
    516c:	89 54 24 38          	mov    %edx,0x38(%rsp)
    5170:	48 89 c7             	mov    %rax,%rdi
    5173:	e8 c8 ec ff ff       	callq  3e40 <_Unwind_Resume@plt>
    5178:	90                   	nop
    5179:	90                   	nop
    517a:	90                   	nop
    517b:	90                   	nop
    517c:	90                   	nop
    517d:	90                   	nop
    517e:	90                   	nop
    517f:	90                   	nop

0000000000005180 <_ZN59_$LT$alloc..alloc..Global$u20$as$u20$core..alloc..Alloc$GT$19unsafe_alloc_zeroed17hceca790b1e59ae25E>:
    5180:	48 83 ec 28          	sub    $0x28,%rsp
    5184:	48 89 7c 24 08       	mov    %rdi,0x8(%rsp)
    5189:	48 89 74 24 10       	mov    %rsi,0x10(%rsp)
    518e:	48 89 54 24 18       	mov    %rdx,0x18(%rsp)
    5193:	48 89 f7             	mov    %rsi,%rdi
    5196:	48 89 d6             	mov    %rdx,%rsi
    5199:	e8 d2 01 00 00       	callq  5370 <_ZN5alloc5alloc19unsafe_alloc_zeroed17h654faa00cfb458d1E>
    519e:	48 89 c7             	mov    %rax,%rdi
    51a1:	e8 0a 01 00 00       	callq  52b0 <_ZN36_$LT$core..ptr..NonNull$LT$T$GT$$GT$3new17h877f5437fc2d935bE>
    51a6:	48 89 c7             	mov    %rax,%rdi
    51a9:	e8 42 01 00 00       	callq  52f0 <_ZN38_$LT$core..option..Option$LT$T$GT$$GT$5ok_or17hde34fce4f7dcf08cE>
    51ae:	48 83 c4 28          	add    $0x28,%rsp
    51b2:	c3                   	retq   
    51b3:	90                   	nop
    51b4:	90                   	nop
    51b5:	90                   	nop
    51b6:	90                   	nop
    51b7:	90                   	nop
    51b8:	90                   	nop
    51b9:	90                   	nop
    51ba:	90                   	nop
    51bb:	90                   	nop
    51bc:	90                   	nop
    51bd:	90                   	nop
    51be:	90                   	nop
    51bf:	90                   	nop

00000000000051c0 <_ZN59_$LT$alloc..alloc..Global$u20$as$u20$core..alloc..Alloc$GT$12unsafe_alloc17h9738923f5eb35341E>:
    51c0:	48 83 ec 28          	sub    $0x28,%rsp
    51c4:	48 89 7c 24 08       	mov    %rdi,0x8(%rsp)
    51c9:	48 89 74 24 10       	mov    %rsi,0x10(%rsp)
    51ce:	48 89 54 24 18       	mov    %rdx,0x18(%rsp)
    51d3:	48 89 f7             	mov    %rsi,%rdi
    51d6:	48 89 d6             	mov    %rdx,%rsi
    51d9:	e8 92 00 00 00       	callq  5270 <_ZN5alloc5alloc12unsafe_alloc17hcfc6ba1f07eb6f27E>
    51de:	48 89 c7             	mov    %rax,%rdi
    51e1:	e8 ca 00 00 00       	callq  52b0 <_ZN36_$LT$core..ptr..NonNull$LT$T$GT$$GT$3new17h877f5437fc2d935bE>
    51e6:	48 89 c7             	mov    %rax,%rdi
    51e9:	e8 02 01 00 00       	callq  52f0 <_ZN38_$LT$core..option..Option$LT$T$GT$$GT$5ok_or17hde34fce4f7dcf08cE>
    51ee:	48 83 c4 28          	add    $0x28,%rsp
    51f2:	c3                   	retq   
    51f3:	90                   	nop
    51f4:	90                   	nop
    51f5:	90                   	nop
    51f6:	90                   	nop
    51f7:	90                   	nop
    51f8:	90                   	nop
    51f9:	90                   	nop
    51fa:	90                   	nop
    51fb:	90                   	nop
    51fc:	90                   	nop
    51fd:	90                   	nop
    51fe:	90                   	nop
    51ff:	90                   	nop

0000000000005200 <_ZN36_$LT$core..ptr..NonNull$LT$T$GT$$GT$4cast17h3c590c2d917d02d7E>:
    5200:	50                   	push   %rax
    5201:	48 89 3c 24          	mov    %rdi,(%rsp)
    5205:	e8 e6 f9 ff ff       	callq  4bf0 <_ZN36_$LT$core..ptr..NonNull$LT$T$GT$$GT$6as_ptr17h7f49cfce5366bbc1E>
    520a:	48 89 c7             	mov    %rax,%rdi
    520d:	e8 3e 00 00 00       	callq  5250 <_ZN36_$LT$core..ptr..NonNull$LT$T$GT$$GT$13new_unchecked17heba5996e75be4334E>
    5212:	59                   	pop    %rcx
    5213:	c3                   	retq   
    5214:	90                   	nop
    5215:	90                   	nop
    5216:	90                   	nop
    5217:	90                   	nop
    5218:	90                   	nop
    5219:	90                   	nop
    521a:	90                   	nop
    521b:	90                   	nop
    521c:	90                   	nop
    521d:	90                   	nop
    521e:	90                   	nop
    521f:	90                   	nop

0000000000005220 <_ZN50_$LT$T$u20$as$u20$core..convert..Into$LT$U$GT$$GT$4into17h9d594876fe872070E>:
    5220:	50                   	push   %rax
    5221:	48 89 3c 24          	mov    %rdi,(%rsp)
    5225:	e8 06 00 00 00       	callq  5230 <_ZN101_$LT$core..ptr..Unique$LT$T$GT$$u20$as$u20$core..convert..From$LT$core..ptr..NonNull$LT$T$GT$$GT$$GT$4from17h0c93764e08a87f53E>
    522a:	59                   	pop    %rcx
    522b:	c3                   	retq   
    522c:	90                   	nop
    522d:	90                   	nop
    522e:	90                   	nop
    522f:	90                   	nop

0000000000005230 <_ZN101_$LT$core..ptr..Unique$LT$T$GT$$u20$as$u20$core..convert..From$LT$core..ptr..NonNull$LT$T$GT$$GT$$GT$4from17h0c93764e08a87f53E>:
    5230:	48 83 ec 18          	sub    $0x18,%rsp
    5234:	48 89 3c 24          	mov    %rdi,(%rsp)
    5238:	48 89 7c 24 08       	mov    %rdi,0x8(%rsp)
    523d:	48 89 f8             	mov    %rdi,%rax
    5240:	48 83 c4 18          	add    $0x18,%rsp
    5244:	c3                   	retq   
    5245:	90                   	nop
    5246:	90                   	nop
    5247:	90                   	nop
    5248:	90                   	nop
    5249:	90                   	nop
    524a:	90                   	nop
    524b:	90                   	nop
    524c:	90                   	nop
    524d:	90                   	nop
    524e:	90                   	nop
    524f:	90                   	nop

0000000000005250 <_ZN36_$LT$core..ptr..NonNull$LT$T$GT$$GT$13new_unchecked17heba5996e75be4334E>:
    5250:	48 83 ec 18          	sub    $0x18,%rsp
    5254:	48 89 3c 24          	mov    %rdi,(%rsp)
    5258:	48 89 7c 24 10       	mov    %rdi,0x10(%rsp)
    525d:	48 89 7c 24 08       	mov    %rdi,0x8(%rsp)
    5262:	48 89 f8             	mov    %rdi,%rax
    5265:	48 83 c4 18          	add    $0x18,%rsp
    5269:	c3                   	retq   
    526a:	90                   	nop
    526b:	90                   	nop
    526c:	90                   	nop
    526d:	90                   	nop
    526e:	90                   	nop
    526f:	90                   	nop

0000000000005270 <_ZN5alloc5alloc12unsafe_alloc17hcfc6ba1f07eb6f27E>:
    5270:	41 56                	push   %r14
    5272:	53                   	push   %rbx
    5273:	48 83 ec 18          	sub    $0x18,%rsp
    5277:	48 89 7c 24 08       	mov    %rdi,0x8(%rsp)
    527c:	48 89 74 24 10       	mov    %rsi,0x10(%rsp)
    5281:	4c 8d 74 24 08       	lea    0x8(%rsp),%r14
    5286:	4c 89 f7             	mov    %r14,%rdi
    5289:	e8 92 f7 ff ff       	callq  4a20 <_ZN4core5alloc6Layout4size17hb82d1e09cf903eeaE>
    528e:	48 89 c3             	mov    %rax,%rbx
    5291:	4c 89 f7             	mov    %r14,%rdi
    5294:	e8 97 f7 ff ff       	callq  4a30 <_ZN4core5alloc6Layout5align17hccbc098d0051d148E>
    5299:	48 89 df             	mov    %rbx,%rdi
    529c:	48 89 c6             	mov    %rax,%rsi
    529f:	e8 8c 03 00 00       	callq  5630 <__rust_unsafe_alloc>
    52a4:	48 83 c4 18          	add    $0x18,%rsp
    52a8:	5b                   	pop    %rbx
    52a9:	41 5e                	pop    %r14
    52ab:	c3                   	retq   
    52ac:	90                   	nop
    52ad:	90                   	nop
    52ae:	90                   	nop
    52af:	90                   	nop

00000000000052b0 <_ZN36_$LT$core..ptr..NonNull$LT$T$GT$$GT$3new17h877f5437fc2d935bE>:
    52b0:	48 83 ec 28          	sub    $0x28,%rsp
    52b4:	48 89 7c 24 10       	mov    %rdi,0x10(%rsp)
    52b9:	e8 62 fa ff ff       	callq  4d20 <_ZN4core3ptr31_$LT$impl$u20$$BP$mut$u20$T$GT$7is_null17h0beb2dbbe31f45e5E>
    52be:	84 c0                	test   %al,%al
    52c0:	75 16                	jne    52d8 <_ZN36_$LT$core..ptr..NonNull$LT$T$GT$$GT$3new17h877f5437fc2d935bE+0x28>
    52c2:	48 8b 44 24 10       	mov    0x10(%rsp),%rax
    52c7:	48 89 44 24 20       	mov    %rax,0x20(%rsp)
    52cc:	48 89 44 24 18       	mov    %rax,0x18(%rsp)
    52d1:	48 89 44 24 08       	mov    %rax,0x8(%rsp)
    52d6:	eb 09                	jmp    52e1 <_ZN36_$LT$core..ptr..NonNull$LT$T$GT$$GT$3new17h877f5437fc2d935bE+0x31>
    52d8:	48 c7 44 24 08 00 00 	movq   $0x0,0x8(%rsp)
    52df:	00 00 
    52e1:	48 8b 44 24 08       	mov    0x8(%rsp),%rax
    52e6:	48 83 c4 28          	add    $0x28,%rsp
    52ea:	c3                   	retq   
    52eb:	90                   	nop
    52ec:	90                   	nop
    52ed:	90                   	nop
    52ee:	90                   	nop
    52ef:	90                   	nop

00000000000052f0 <_ZN38_$LT$core..option..Option$LT$T$GT$$GT$5ok_or17hde34fce4f7dcf08cE>:
    52f0:	48 83 ec 40          	sub    $0x40,%rsp
    52f4:	48 89 7c 24 08       	mov    %rdi,0x8(%rsp)
    52f9:	c6 44 24 06 01       	movb   $0x1,0x6(%rsp)
    52fe:	c6 44 24 07 01       	movb   $0x1,0x7(%rsp)
    5303:	48 8d 44 24 08       	lea    0x8(%rsp),%rax
    5308:	48 89 44 24 18       	mov    %rax,0x18(%rsp)
    530d:	48 85 ff             	test   %rdi,%rdi
    5310:	74 1d                	je     532f <_ZN38_$LT$core..option..Option$LT$T$GT$$GT$5ok_or17hde34fce4f7dcf08cE+0x3f>
    5312:	c6 44 24 06 00       	movb   $0x0,0x6(%rsp)
    5317:	48 8b 44 24 08       	mov    0x8(%rsp),%rax
    531c:	48 89 44 24 20       	mov    %rax,0x20(%rsp)
    5321:	48 89 44 24 10       	mov    %rax,0x10(%rsp)
    5326:	80 7c 24 07 00       	cmpb   $0x0,0x7(%rsp)
    532b:	75 17                	jne    5344 <_ZN38_$LT$core..option..Option$LT$T$GT$$GT$5ok_or17hde34fce4f7dcf08cE+0x54>
    532d:	eb 1a                	jmp    5349 <_ZN38_$LT$core..option..Option$LT$T$GT$$GT$5ok_or17hde34fce4f7dcf08cE+0x59>
    532f:	c6 44 24 07 00       	movb   $0x0,0x7(%rsp)
    5334:	48 c7 44 24 10 00 00 	movq   $0x0,0x10(%rsp)
    533b:	00 00 
    533d:	80 7c 24 07 00       	cmpb   $0x0,0x7(%rsp)
    5342:	74 05                	je     5349 <_ZN38_$LT$core..option..Option$LT$T$GT$$GT$5ok_or17hde34fce4f7dcf08cE+0x59>
    5344:	c6 44 24 07 00       	movb   $0x0,0x7(%rsp)
    5349:	48 83 7c 24 08 00    	cmpq   $0x0,0x8(%rsp)
    534f:	74 0c                	je     535d <_ZN38_$LT$core..option..Option$LT$T$GT$$GT$5ok_or17hde34fce4f7dcf08cE+0x6d>
    5351:	80 7c 24 06 01       	cmpb   $0x1,0x6(%rsp)
    5356:	75 05                	jne    535d <_ZN38_$LT$core..option..Option$LT$T$GT$$GT$5ok_or17hde34fce4f7dcf08cE+0x6d>
    5358:	c6 44 24 06 00       	movb   $0x0,0x6(%rsp)
    535d:	48 8b 44 24 10       	mov    0x10(%rsp),%rax
    5362:	48 83 c4 40          	add    $0x40,%rsp
    5366:	c3                   	retq   
    5367:	90                   	nop
    5368:	90                   	nop
    5369:	90                   	nop
    536a:	90                   	nop
    536b:	90                   	nop
    536c:	90                   	nop
    536d:	90                   	nop
    536e:	90                   	nop
    536f:	90                   	nop

0000000000005370 <_ZN5alloc5alloc19unsafe_alloc_zeroed17h654faa00cfb458d1E>:
    5370:	41 56                	push   %r14
    5372:	53                   	push   %rbx
    5373:	48 83 ec 18          	sub    $0x18,%rsp
    5377:	48 89 7c 24 08       	mov    %rdi,0x8(%rsp)
    537c:	48 89 74 24 10       	mov    %rsi,0x10(%rsp)
    5381:	4c 8d 74 24 08       	lea    0x8(%rsp),%r14
    5386:	4c 89 f7             	mov    %r14,%rdi
    5389:	e8 92 f6 ff ff       	callq  4a20 <_ZN4core5alloc6Layout4size17hb82d1e09cf903eeaE>
    538e:	48 89 c3             	mov    %rax,%rbx
    5391:	4c 89 f7             	mov    %r14,%rdi
    5394:	e8 97 f6 ff ff       	callq  4a30 <_ZN4core5alloc6Layout5align17hccbc098d0051d148E>
    5399:	48 89 df             	mov    %rbx,%rdi
    539c:	48 89 c6             	mov    %rax,%rsi
    539f:	e8 cc 02 00 00       	callq  5670 <__rust_unsafe_alloc_zeroed>
    53a4:	48 83 c4 18          	add    $0x18,%rsp
    53a8:	5b                   	pop    %rbx
    53a9:	41 5e                	pop    %r14
    53ab:	c3                   	retq   
    53ac:	90                   	nop
    53ad:	90                   	nop
    53ae:	90                   	nop
    53af:	90                   	nop

00000000000053b0 <_ZN4core6result13unwrap_failed17h7d82ab50ba9a202cE>:
    53b0:	41 56                	push   %r14
    53b2:	53                   	push   %rbx
    53b3:	48 81 ec a8 00 00 00 	sub    $0xa8,%rsp
    53ba:	48 89 7c 24 18       	mov    %rdi,0x18(%rsp)
    53bf:	48 89 74 24 20       	mov    %rsi,0x20(%rsp)
    53c4:	48 8d 7c 24 18       	lea    0x18(%rsp),%rdi
    53c9:	48 89 7c 24 28       	mov    %rdi,0x28(%rsp)
    53ce:	48 8d 44 24 08       	lea    0x8(%rsp),%rax
    53d3:	48 89 44 24 30       	mov    %rax,0x30(%rsp)
    53d8:	48 8d 4c 24 28       	lea    0x28(%rsp),%rcx
    53dd:	48 89 4c 24 58       	mov    %rcx,0x58(%rsp)
    53e2:	48 89 7c 24 60       	mov    %rdi,0x60(%rsp)
    53e7:	48 89 44 24 10       	mov    %rax,0x10(%rsp)
    53ec:	48 8d 35 8d 00 00 00 	lea    0x8d(%rip),%rsi        # 5480 <_ZN55_$LT$$RF$$u27$a$u20$T$u20$as$u20$core..fmt..Display$GT$3fmt17h6aa7bb3c82d032edE>
    53f3:	e8 b8 00 00 00       	callq  54b0 <_ZN4core3fmt10ArgumentV13new17hdb33f111be98b4c5E>
    53f8:	48 89 c3             	mov    %rax,%rbx
    53fb:	49 89 d6             	mov    %rdx,%r14
    53fe:	48 8b 7c 24 10       	mov    0x10(%rsp),%rdi
    5403:	48 8d 35 b6 1c 02 00 	lea    0x21cb6(%rip),%rsi        # 270c0 <_ZN59_$LT$core..alloc..LayoutErr$u20$as$u20$core..fmt..Debug$GT$3fmt17had9597bf44f01be3E>
    540a:	e8 d1 00 00 00       	callq  54e0 <_ZN4core3fmt10ArgumentV13new17hf89df2aebe6a57eeE>
    540f:	48 89 5c 24 38       	mov    %rbx,0x38(%rsp)
    5414:	4c 89 74 24 40       	mov    %r14,0x40(%rsp)
    5419:	48 89 44 24 48       	mov    %rax,0x48(%rsp)
    541e:	48 89 54 24 50       	mov    %rdx,0x50(%rsp)
    5423:	48 c7 04 24 02 00 00 	movq   $0x2,(%rsp)
    542a:	00 
    542b:	48 8d 35 d6 f7 22 00 	lea    0x22f7d6(%rip),%rsi        # 234c08 <debug_section_names+0xc8>
    5432:	4c 8d 0d d7 23 02 00 	lea    0x223d7(%rip),%r9        # 27810 <_ZN4play6GLOBAL17h6391985a871b6f5eE+0xd0>
    5439:	48 8d 7c 24 78       	lea    0x78(%rsp),%rdi
    543e:	48 8d 4c 24 38       	lea    0x38(%rsp),%rcx
    5443:	ba 02 00 00 00       	mov    $0x2,%edx
    5448:	41 b8 02 00 00 00    	mov    $0x2,%r8d
    544e:	e8 ed f1 ff ff       	callq  4640 <_ZN4core3fmt9Arguments16new_v1_formatted17h1d83b72459772b55E>
    5453:	48 8d 35 ce f7 22 00 	lea    0x22f7ce(%rip),%rsi        # 234c28 <debug_section_names+0xe8>
    545a:	48 8d 7c 24 78       	lea    0x78(%rsp),%rdi
    545f:	e8 1c 1c 02 00       	callq  27080 <_ZN4core9panicking9panic_fmt17h48294571b2c45ee0E>
    5464:	48 89 44 24 68       	mov    %rax,0x68(%rsp)
    5469:	89 54 24 70          	mov    %edx,0x70(%rsp)
    546d:	48 89 c7             	mov    %rax,%rdi
    5470:	e8 cb e9 ff ff       	callq  3e40 <_Unwind_Resume@plt>
    5475:	90                   	nop
    5476:	90                   	nop
    5477:	90                   	nop
    5478:	90                   	nop
    5479:	90                   	nop
    547a:	90                   	nop
    547b:	90                   	nop
    547c:	90                   	nop
    547d:	90                   	nop
    547e:	90                   	nop
    547f:	90                   	nop

0000000000005480 <_ZN55_$LT$$RF$$u27$a$u20$T$u20$as$u20$core..fmt..Display$GT$3fmt17h6aa7bb3c82d032edE>:
    5480:	48 83 ec 18          	sub    $0x18,%rsp
    5484:	48 89 f0             	mov    %rsi,%rax
    5487:	48 89 7c 24 08       	mov    %rdi,0x8(%rsp)
    548c:	48 89 74 24 10       	mov    %rsi,0x10(%rsp)
    5491:	48 8b 0f             	mov    (%rdi),%rcx
    5494:	48 8b 77 08          	mov    0x8(%rdi),%rsi
    5498:	48 89 cf             	mov    %rcx,%rdi
    549b:	48 89 c2             	mov    %rax,%rdx
    549e:	e8 dd 04 02 00       	callq  25980 <_ZN42_$LT$str$u20$as$u20$core..fmt..Display$GT$3fmt17h29cbf648fab0706eE>
    54a3:	48 83 c4 18          	add    $0x18,%rsp
    54a7:	c3                   	retq   
    54a8:	90                   	nop
    54a9:	90                   	nop
    54aa:	90                   	nop
    54ab:	90                   	nop
    54ac:	90                   	nop
    54ad:	90                   	nop
    54ae:	90                   	nop
    54af:	90                   	nop

00000000000054b0 <_ZN4core3fmt10ArgumentV13new17hdb33f111be98b4c5E>:
    54b0:	48 83 ec 30          	sub    $0x30,%rsp
    54b4:	48 89 3c 24          	mov    %rdi,(%rsp)
    54b8:	48 89 74 24 08       	mov    %rsi,0x8(%rsp)
    54bd:	48 89 74 24 20       	mov    %rsi,0x20(%rsp)
    54c2:	48 89 7c 24 28       	mov    %rdi,0x28(%rsp)
    54c7:	48 89 7c 24 10       	mov    %rdi,0x10(%rsp)
    54cc:	48 89 74 24 18       	mov    %rsi,0x18(%rsp)
    54d1:	48 89 f8             	mov    %rdi,%rax
    54d4:	48 89 f2             	mov    %rsi,%rdx
    54d7:	48 83 c4 30          	add    $0x30,%rsp
    54db:	c3                   	retq   
    54dc:	90                   	nop
    54dd:	90                   	nop
    54de:	90                   	nop
    54df:	90                   	nop

00000000000054e0 <_ZN4core3fmt10ArgumentV13new17hf89df2aebe6a57eeE>:
    54e0:	48 83 ec 30          	sub    $0x30,%rsp
    54e4:	48 89 3c 24          	mov    %rdi,(%rsp)
    54e8:	48 89 74 24 08       	mov    %rsi,0x8(%rsp)
    54ed:	48 89 74 24 20       	mov    %rsi,0x20(%rsp)
    54f2:	48 89 7c 24 28       	mov    %rdi,0x28(%rsp)
    54f7:	48 89 7c 24 10       	mov    %rdi,0x10(%rsp)
    54fc:	48 89 74 24 18       	mov    %rsi,0x18(%rsp)
    5501:	48 89 f8             	mov    %rdi,%rax
    5504:	48 89 f2             	mov    %rsi,%rdx
    5507:	48 83 c4 30          	add    $0x30,%rsp
    550b:	c3                   	retq   
    550c:	90                   	nop
    550d:	90                   	nop
    550e:	90                   	nop
    550f:	90                   	nop

0000000000005510 <_ZN4core3num23_$LT$impl$u20$usize$GT$15is_power_of_two17h49f24a0e607efbbfE>:
    5510:	48 83 ec 18          	sub    $0x18,%rsp
    5514:	48 89 7c 24 10       	mov    %rdi,0x10(%rsp)
    5519:	be 01 00 00 00       	mov    $0x1,%esi
    551e:	e8 2d 00 00 00       	callq  5550 <_ZN4core3num23_$LT$impl$u20$usize$GT$12wrapping_sub17hcded3ae37e0302b4E>
    5523:	48 85 44 24 10       	test   %rax,0x10(%rsp)
    5528:	75 0f                	jne    5539 <_ZN4core3num23_$LT$impl$u20$usize$GT$15is_power_of_two17h49f24a0e607efbbfE+0x29>
    552a:	48 83 7c 24 10 00    	cmpq   $0x0,0x10(%rsp)
    5530:	74 07                	je     5539 <_ZN4core3num23_$LT$impl$u20$usize$GT$15is_power_of_two17h49f24a0e607efbbfE+0x29>
    5532:	c6 44 24 0f 01       	movb   $0x1,0xf(%rsp)
    5537:	eb 05                	jmp    553e <_ZN4core3num23_$LT$impl$u20$usize$GT$15is_power_of_two17h49f24a0e607efbbfE+0x2e>
    5539:	c6 44 24 0f 00       	movb   $0x0,0xf(%rsp)
    553e:	8a 44 24 0f          	mov    0xf(%rsp),%al
    5542:	48 83 c4 18          	add    $0x18,%rsp
    5546:	c3                   	retq   
    5547:	90                   	nop
    5548:	90                   	nop
    5549:	90                   	nop
    554a:	90                   	nop
    554b:	90                   	nop
    554c:	90                   	nop
    554d:	90                   	nop
    554e:	90                   	nop
    554f:	90                   	nop

0000000000005550 <_ZN4core3num23_$LT$impl$u20$usize$GT$12wrapping_sub17hcded3ae37e0302b4E>:
    5550:	48 83 ec 18          	sub    $0x18,%rsp
    5554:	48 89 3c 24          	mov    %rdi,(%rsp)
    5558:	48 89 74 24 08       	mov    %rsi,0x8(%rsp)
    555d:	48 29 f7             	sub    %rsi,%rdi
    5560:	48 89 7c 24 10       	mov    %rdi,0x10(%rsp)
    5565:	48 89 f8             	mov    %rdi,%rax
    5568:	48 83 c4 18          	add    $0x18,%rsp
    556c:	c3                   	retq   
    556d:	90                   	nop
    556e:	90                   	nop
    556f:	90                   	nop

0000000000005570 <_ZN49_$LT$alloc..raw_vec..RawVec$LT$T$C$$u20$A$GT$$GT$18unsafe_allocate_in28_$u7b$$u7b$closure$u7d$$u7d$17h583f7f0a6dd80dcbE>:
    5570:	48 83 ec 18          	sub    $0x18,%rsp
    5574:	40 88 7c 24 0f       	mov    %dil,0xf(%rsp)
    5579:	e8 a2 c3 01 00       	callq  21920 <_ZN5alloc7raw_vec17capacity_overflow17ha447f3f07724bc99E>
    557e:	90                   	nop
    557f:	90                   	nop

0000000000005580 <_ZN4core3mem7size_of17hedc7bca014ba858aE>:
    5580:	50                   	push   %rax
    5581:	48 c7 04 24 08 00 00 	movq   $0x8,(%rsp)
    5588:	00 
    5589:	b8 08 00 00 00       	mov    $0x8,%eax
    558e:	59                   	pop    %rcx
    558f:	c3                   	retq   

0000000000005590 <_ZN49_$LT$alloc..raw_vec..RawVec$LT$T$C$$u20$A$GT$$GT$18unsafe_allocate_in28_$u7b$$u7b$closure$u7d$$u7d$17hd9bcb5d1512f9e48E>:
    5590:	50                   	push   %rax
    5591:	e8 8a c3 01 00       	callq  21920 <_ZN5alloc7raw_vec17capacity_overflow17ha447f3f07724bc99E>
    5596:	90                   	nop
    5597:	90                   	nop
    5598:	90                   	nop
    5599:	90                   	nop
    559a:	90                   	nop
    559b:	90                   	nop
    559c:	90                   	nop
    559d:	90                   	nop
    559e:	90                   	nop
    559f:	90                   	nop

00000000000055a0 <_ZN4core3num23_$LT$impl$u20$usize$GT$15overflowing_mul17hc2c797b8f28726c4E>:
    55a0:	48 83 ec 40          	sub    $0x40,%rsp
    55a4:	48 89 7c 24 08       	mov    %rdi,0x8(%rsp)
    55a9:	48 89 74 24 10       	mov    %rsi,0x10(%rsp)
    55ae:	48 89 f8             	mov    %rdi,%rax
    55b1:	48 f7 e6             	mul    %rsi
    55b4:	0f 90 c2             	seto   %dl
    55b7:	48 89 44 24 30       	mov    %rax,0x30(%rsp)
    55bc:	0f 90 44 24 38       	seto   0x38(%rsp)
    55c1:	48 89 44 24 28       	mov    %rax,0x28(%rsp)
    55c6:	0f 90 44 24 07       	seto   0x7(%rsp)
    55cb:	48 89 44 24 18       	mov    %rax,0x18(%rsp)
    55d0:	0f 90 44 24 20       	seto   0x20(%rsp)
    55d5:	48 83 c4 40          	add    $0x40,%rsp
    55d9:	c3                   	retq   
    55da:	90                   	nop
    55db:	90                   	nop
    55dc:	90                   	nop
    55dd:	90                   	nop
    55de:	90                   	nop
    55df:	90                   	nop

00000000000055e0 <__in_unsafe_region>:
    55e0:	55                   	push   %rbp
    55e1:	48 89 e5             	mov    %rsp,%rbp
    55e4:	48 89 7d f0          	mov    %rdi,-0x10(%rbp)
    55e8:	48 3b 3d 89 1a 23 00 	cmp    0x231a89(%rip),%rdi        # 237078 <pt_unsafe_upper>
    55ef:	73 16                	jae    5607 <__in_unsafe_region+0x27>
    55f1:	48 8b 45 f0          	mov    -0x10(%rbp),%rax
    55f5:	48 3b 05 4c 1c 23 00 	cmp    0x231c4c(%rip),%rax        # 237248 <pt_unsafe_lower>
    55fc:	76 09                	jbe    5607 <__in_unsafe_region+0x27>
    55fe:	c7 45 fc 01 00 00 00 	movl   $0x1,-0x4(%rbp)
    5605:	eb 07                	jmp    560e <__in_unsafe_region+0x2e>
    5607:	c7 45 fc 00 00 00 00 	movl   $0x0,-0x4(%rbp)
    560e:	8b 45 fc             	mov    -0x4(%rbp),%eax
    5611:	5d                   	pop    %rbp
    5612:	c3                   	retq   
    5613:	66 2e 0f 1f 84 00 00 	nopw   %cs:0x0(%rax,%rax,1)
    561a:	00 00 00 
    561d:	0f 1f 00             	nopl   (%rax)

0000000000005620 <__rust_alloc>:
    5620:	e9 7b eb ff ff       	jmpq   41a0 <__rg_alloc>
    5625:	90                   	nop
    5626:	90                   	nop
    5627:	90                   	nop
    5628:	90                   	nop
    5629:	90                   	nop
    562a:	90                   	nop
    562b:	90                   	nop
    562c:	90                   	nop
    562d:	90                   	nop
    562e:	90                   	nop
    562f:	90                   	nop

0000000000005630 <__rust_unsafe_alloc>:
    5630:	e9 fb eb ff ff       	jmpq   4230 <__rg_unsafe_alloc>
    5635:	90                   	nop
    5636:	90                   	nop
    5637:	90                   	nop
    5638:	90                   	nop
    5639:	90                   	nop
    563a:	90                   	nop
    563b:	90                   	nop
    563c:	90                   	nop
    563d:	90                   	nop
    563e:	90                   	nop
    563f:	90                   	nop

0000000000005640 <__rust_dealloc>:
    5640:	e9 1b ec ff ff       	jmpq   4260 <__rg_dealloc>
    5645:	90                   	nop
    5646:	90                   	nop
    5647:	90                   	nop
    5648:	90                   	nop
    5649:	90                   	nop
    564a:	90                   	nop
    564b:	90                   	nop
    564c:	90                   	nop
    564d:	90                   	nop
    564e:	90                   	nop
    564f:	90                   	nop

0000000000005650 <__rust_realloc>:
    5650:	e9 4b ec ff ff       	jmpq   42a0 <__rg_realloc>
    5655:	90                   	nop
    5656:	90                   	nop
    5657:	90                   	nop
    5658:	90                   	nop
    5659:	90                   	nop
    565a:	90                   	nop
    565b:	90                   	nop
    565c:	90                   	nop
    565d:	90                   	nop
    565e:	90                   	nop
    565f:	90                   	nop

0000000000005660 <__rust_alloc_zeroed>:
    5660:	e9 8b ec ff ff       	jmpq   42f0 <__rg_alloc_zeroed>
    5665:	90                   	nop
    5666:	90                   	nop
    5667:	90                   	nop
    5668:	90                   	nop
    5669:	90                   	nop
    566a:	90                   	nop
    566b:	90                   	nop
    566c:	90                   	nop
    566d:	90                   	nop
    566e:	90                   	nop
    566f:	90                   	nop

0000000000005670 <__rust_unsafe_alloc_zeroed>:
    5670:	e9 ab ec ff ff       	jmpq   4320 <__rg_unsafe_alloc_zeroed>
    5675:	66 2e 0f 1f 84 00 00 	nopw   %cs:0x0(%rax,%rax,1)
    567c:	00 00 00 
    567f:	90                   	nop

0000000000005680 <_ZN4core3ptr13drop_in_place17h21fa1f0bdadd4f4aE.llvm.4413060258141956733>:
    5680:	48 83 3f 00          	cmpq   $0x0,(%rdi)
    5684:	74 09                	je     568f <_ZN4core3ptr13drop_in_place17h21fa1f0bdadd4f4aE.llvm.4413060258141956733+0xf>
    5686:	48 83 c7 08          	add    $0x8,%rdi
    568a:	e9 11 00 00 00       	jmpq   56a0 <_ZN4core3ptr13drop_in_place17h913f9cf9e1d457c8E.llvm.4413060258141956733>
    568f:	c3                   	retq   

0000000000005690 <_ZN4core3ptr13drop_in_place17h2fc5e6e1db06c89cE>:
    5690:	80 3f 03             	cmpb   $0x3,(%rdi)
    5693:	75 01                	jne    5696 <_ZN4core3ptr13drop_in_place17h2fc5e6e1db06c89cE+0x6>
    5695:	c3                   	retq   
    5696:	e9 05 00 00 00       	jmpq   56a0 <_ZN4core3ptr13drop_in_place17h913f9cf9e1d457c8E.llvm.4413060258141956733>
    569b:	0f 1f 44 00 00       	nopl   0x0(%rax,%rax,1)

00000000000056a0 <_ZN4core3ptr13drop_in_place17h913f9cf9e1d457c8E.llvm.4413060258141956733>:
    56a0:	41 57                	push   %r15
    56a2:	41 56                	push   %r14
    56a4:	53                   	push   %rbx
    56a5:	80 3f 02             	cmpb   $0x2,(%rdi)
    56a8:	73 06                	jae    56b0 <_ZN4core3ptr13drop_in_place17h913f9cf9e1d457c8E.llvm.4413060258141956733+0x10>
    56aa:	5b                   	pop    %rbx
    56ab:	41 5e                	pop    %r14
    56ad:	41 5f                	pop    %r15
    56af:	c3                   	retq   
    56b0:	49 89 ff             	mov    %rdi,%r15
    56b3:	48 8b 5f 08          	mov    0x8(%rdi),%rbx
    56b7:	48 8b 3b             	mov    (%rbx),%rdi
    56ba:	48 8b 43 08          	mov    0x8(%rbx),%rax
    56be:	ff 10                	callq  *(%rax)
    56c0:	48 8b 43 08          	mov    0x8(%rbx),%rax
    56c4:	48 8b 70 08          	mov    0x8(%rax),%rsi
    56c8:	48 85 f6             	test   %rsi,%rsi
    56cb:	74 0c                	je     56d9 <_ZN4core3ptr13drop_in_place17h913f9cf9e1d457c8E.llvm.4413060258141956733+0x39>
    56cd:	48 8b 3b             	mov    (%rbx),%rdi
    56d0:	48 8b 50 10          	mov    0x10(%rax),%rdx
    56d4:	e8 67 ff ff ff       	callq  5640 <__rust_dealloc>
    56d9:	49 8b 7f 08          	mov    0x8(%r15),%rdi
    56dd:	be 18 00 00 00       	mov    $0x18,%esi
    56e2:	ba 08 00 00 00       	mov    $0x8,%edx
    56e7:	5b                   	pop    %rbx
    56e8:	41 5e                	pop    %r14
    56ea:	41 5f                	pop    %r15
    56ec:	e9 4f ff ff ff       	jmpq   5640 <__rust_dealloc>
    56f1:	49 89 c6             	mov    %rax,%r14
    56f4:	48 8b 3b             	mov    (%rbx),%rdi
    56f7:	48 8b 73 08          	mov    0x8(%rbx),%rsi
    56fb:	e8 80 03 00 00       	callq  5a80 <_ZN5alloc5alloc8box_free17ha51a6fc3cce93b49E.llvm.4413060258141956733>
    5700:	49 8b 7f 08          	mov    0x8(%r15),%rdi
    5704:	e8 47 03 00 00       	callq  5a50 <_ZN5alloc5alloc8box_free17h2ad8dc8a77c6f592E>
    5709:	4c 89 f7             	mov    %r14,%rdi
    570c:	e8 2f e7 ff ff       	callq  3e40 <_Unwind_Resume@plt>
    5711:	0f 0b                	ud2    
    5713:	66 2e 0f 1f 84 00 00 	nopw   %cs:0x0(%rax,%rax,1)
    571a:	00 00 00 
    571d:	0f 1f 00             	nopl   (%rax)

0000000000005720 <_ZN4core3ptr13drop_in_place17h93c4de1fe3f68dcbE.llvm.4413060258141956733>:
    5720:	41 56                	push   %r14
    5722:	53                   	push   %rbx
    5723:	50                   	push   %rax
    5724:	48 89 fb             	mov    %rdi,%rbx
    5727:	48 8b 3f             	mov    (%rdi),%rdi
    572a:	48 8b 43 08          	mov    0x8(%rbx),%rax
    572e:	ff 10                	callq  *(%rax)
    5730:	48 8b 43 08          	mov    0x8(%rbx),%rax
    5734:	48 8b 70 08          	mov    0x8(%rax),%rsi
    5738:	48 85 f6             	test   %rsi,%rsi
    573b:	74 13                	je     5750 <_ZN4core3ptr13drop_in_place17h93c4de1fe3f68dcbE.llvm.4413060258141956733+0x30>
    573d:	48 8b 3b             	mov    (%rbx),%rdi
    5740:	48 8b 50 10          	mov    0x10(%rax),%rdx
    5744:	48 83 c4 08          	add    $0x8,%rsp
    5748:	5b                   	pop    %rbx
    5749:	41 5e                	pop    %r14
    574b:	e9 f0 fe ff ff       	jmpq   5640 <__rust_dealloc>
    5750:	48 83 c4 08          	add    $0x8,%rsp
    5754:	5b                   	pop    %rbx
    5755:	41 5e                	pop    %r14
    5757:	c3                   	retq   
    5758:	49 89 c6             	mov    %rax,%r14
    575b:	48 8b 3b             	mov    (%rbx),%rdi
    575e:	48 8b 73 08          	mov    0x8(%rbx),%rsi
    5762:	e8 f9 02 00 00       	callq  5a60 <_ZN5alloc5alloc8box_free17h74d69fd88824a794E>
    5767:	4c 89 f7             	mov    %r14,%rdi
    576a:	e8 d1 e6 ff ff       	callq  3e40 <_Unwind_Resume@plt>
    576f:	0f 0b                	ud2    
    5771:	66 2e 0f 1f 84 00 00 	nopw   %cs:0x0(%rax,%rax,1)
    5778:	00 00 00 
    577b:	0f 1f 44 00 00       	nopl   0x0(%rax,%rax,1)

0000000000005780 <_ZN4core3ptr13drop_in_place17hb8376cfde6acc3c5E.llvm.4413060258141956733>:
    5780:	48 8b 3f             	mov    (%rdi),%rdi
    5783:	e9 08 e5 ff ff       	jmpq   3c90 <pthread_mutex_unlock@plt>
    5788:	0f 1f 84 00 00 00 00 	nopl   0x0(%rax,%rax,1)
    578f:	00 

0000000000005790 <_ZN4core3ptr13drop_in_place17hc30bd391b96fd625E>:
    5790:	48 8b 07             	mov    (%rdi),%rax
    5793:	f0 48 81 28 01 00 00 	lock subq $0x1,(%rax)
    579a:	00 
    579b:	75 05                	jne    57a2 <_ZN4core3ptr13drop_in_place17hc30bd391b96fd625E+0x12>
    579d:	e9 6e 35 00 00       	jmpq   8d10 <_ZN34_$LT$alloc..sync..Arc$LT$T$GT$$GT$9drop_slow17h909900eb44436c17E>
    57a2:	c3                   	retq   
    57a3:	66 2e 0f 1f 84 00 00 	nopw   %cs:0x0(%rax,%rax,1)
    57aa:	00 00 00 
    57ad:	0f 1f 00             	nopl   (%rax)

00000000000057b0 <_ZN4core3ptr13drop_in_place17hd794cd30e8c0bac9E>:
    57b0:	41 56                	push   %r14
    57b2:	53                   	push   %rbx
    57b3:	50                   	push   %rax
    57b4:	83 3f 00             	cmpl   $0x0,(%rdi)
    57b7:	74 2e                	je     57e7 <_ZN4core3ptr13drop_in_place17hd794cd30e8c0bac9E+0x37>
    57b9:	48 89 fb             	mov    %rdi,%rbx
    57bc:	48 8b 7f 08          	mov    0x8(%rdi),%rdi
    57c0:	48 8b 43 10          	mov    0x10(%rbx),%rax
    57c4:	ff 10                	callq  *(%rax)
    57c6:	48 8b 43 10          	mov    0x10(%rbx),%rax
    57ca:	48 8b 70 08          	mov    0x8(%rax),%rsi
    57ce:	48 85 f6             	test   %rsi,%rsi
    57d1:	74 14                	je     57e7 <_ZN4core3ptr13drop_in_place17hd794cd30e8c0bac9E+0x37>
    57d3:	48 8b 7b 08          	mov    0x8(%rbx),%rdi
    57d7:	48 8b 50 10          	mov    0x10(%rax),%rdx
    57db:	48 83 c4 08          	add    $0x8,%rsp
    57df:	5b                   	pop    %rbx
    57e0:	41 5e                	pop    %r14
    57e2:	e9 59 fe ff ff       	jmpq   5640 <__rust_dealloc>
    57e7:	48 83 c4 08          	add    $0x8,%rsp
    57eb:	5b                   	pop    %rbx
    57ec:	41 5e                	pop    %r14
    57ee:	c3                   	retq   
    57ef:	49 89 c6             	mov    %rax,%r14
    57f2:	48 8b 7b 08          	mov    0x8(%rbx),%rdi
    57f6:	48 8b 73 10          	mov    0x10(%rbx),%rsi
    57fa:	e8 61 02 00 00       	callq  5a60 <_ZN5alloc5alloc8box_free17h74d69fd88824a794E>
    57ff:	4c 89 f7             	mov    %r14,%rdi
    5802:	e8 39 e6 ff ff       	callq  3e40 <_Unwind_Resume@plt>
    5807:	0f 0b                	ud2    
    5809:	0f 1f 80 00 00 00 00 	nopl   0x0(%rax)

0000000000005810 <_ZN4core3ptr13drop_in_place17hffed4d284ebc9478E>:
    5810:	41 57                	push   %r15
    5812:	41 56                	push   %r14
    5814:	41 55                	push   %r13
    5816:	41 54                	push   %r12
    5818:	53                   	push   %rbx
    5819:	49 89 fe             	mov    %rdi,%r14
    581c:	4c 8b 6f 10          	mov    0x10(%rdi),%r13
    5820:	4c 8b 67 18          	mov    0x18(%rdi),%r12
    5824:	4d 39 e5             	cmp    %r12,%r13
    5827:	74 38                	je     5861 <_ZN4core3ptr13drop_in_place17hffed4d284ebc9478E+0x51>
    5829:	0f 1f 80 00 00 00 00 	nopl   0x0(%rax)
    5830:	4c 89 e8             	mov    %r13,%rax
    5833:	4d 8d 6d 10          	lea    0x10(%r13),%r13
    5837:	4d 89 6e 10          	mov    %r13,0x10(%r14)
    583b:	4c 8b 38             	mov    (%rax),%r15
    583e:	48 8b 58 08          	mov    0x8(%rax),%rbx
    5842:	4c 89 ff             	mov    %r15,%rdi
    5845:	ff 13                	callq  *(%rbx)
    5847:	48 8b 73 08          	mov    0x8(%rbx),%rsi
    584b:	48 85 f6             	test   %rsi,%rsi
    584e:	74 0c                	je     585c <_ZN4core3ptr13drop_in_place17hffed4d284ebc9478E+0x4c>
    5850:	48 8b 53 10          	mov    0x10(%rbx),%rdx
    5854:	4c 89 ff             	mov    %r15,%rdi
    5857:	e8 e4 fd ff ff       	callq  5640 <__rust_dealloc>
    585c:	4d 39 ec             	cmp    %r13,%r12
    585f:	75 cf                	jne    5830 <_ZN4core3ptr13drop_in_place17hffed4d284ebc9478E+0x20>
    5861:	49 8b 76 08          	mov    0x8(%r14),%rsi
    5865:	48 85 f6             	test   %rsi,%rsi
    5868:	74 1a                	je     5884 <_ZN4core3ptr13drop_in_place17hffed4d284ebc9478E+0x74>
    586a:	49 8b 3e             	mov    (%r14),%rdi
    586d:	48 c1 e6 04          	shl    $0x4,%rsi
    5871:	ba 08 00 00 00       	mov    $0x8,%edx
    5876:	5b                   	pop    %rbx
    5877:	41 5c                	pop    %r12
    5879:	41 5d                	pop    %r13
    587b:	41 5e                	pop    %r14
    587d:	41 5f                	pop    %r15
    587f:	e9 bc fd ff ff       	jmpq   5640 <__rust_dealloc>
    5884:	5b                   	pop    %rbx
    5885:	41 5c                	pop    %r12
    5887:	41 5d                	pop    %r13
    5889:	41 5e                	pop    %r14
    588b:	41 5f                	pop    %r15
    588d:	c3                   	retq   
    588e:	49 89 c6             	mov    %rax,%r14
    5891:	4c 89 ff             	mov    %r15,%rdi
    5894:	48 89 de             	mov    %rbx,%rsi
    5897:	e8 24 a4 00 00       	callq  fcc0 <_ZN5alloc5alloc8box_free17ha53b514f9bdea6f3E.llvm.16971914070871203310>
    589c:	4c 89 f7             	mov    %r14,%rdi
    589f:	e8 9c e5 ff ff       	callq  3e40 <_Unwind_Resume@plt>
    58a4:	0f 0b                	ud2    
    58a6:	66 2e 0f 1f 84 00 00 	nopw   %cs:0x0(%rax,%rax,1)
    58ad:	00 00 00 

00000000000058b0 <_ZN52_$LT$$BP$const$u20$T$u20$as$u20$core..fmt..Debug$GT$3fmt17h9ab8b684d16b1783E>:
    58b0:	55                   	push   %rbp
    58b1:	41 57                	push   %r15
    58b3:	41 56                	push   %r14
    58b5:	41 54                	push   %r12
    58b7:	53                   	push   %rbx
    58b8:	48 83 ec 10          	sub    $0x10,%rsp
    58bc:	48 89 f3             	mov    %rsi,%rbx
    58bf:	49 89 fe             	mov    %rdi,%r14
    58c2:	4c 8b 3e             	mov    (%rsi),%r15
    58c5:	4c 8b 66 08          	mov    0x8(%rsi),%r12
    58c9:	8b 6e 50             	mov    0x50(%rsi),%ebp
    58cc:	48 89 f7             	mov    %rsi,%rdi
    58cf:	e8 1c fa 01 00       	callq  252f0 <_ZN4core3fmt9Formatter9alternate17h730d2fda81e14f7dE>
    58d4:	8b 4b 50             	mov    0x50(%rbx),%ecx
    58d7:	84 c0                	test   %al,%al
    58d9:	74 1b                	je     58f6 <_ZN52_$LT$$BP$const$u20$T$u20$as$u20$core..fmt..Debug$GT$3fmt17h9ab8b684d16b1783E+0x46>
    58db:	83 c9 08             	or     $0x8,%ecx
    58de:	89 4b 50             	mov    %ecx,0x50(%rbx)
    58e1:	48 83 3b 00          	cmpq   $0x0,(%rbx)
    58e5:	75 0f                	jne    58f6 <_ZN52_$LT$$BP$const$u20$T$u20$as$u20$core..fmt..Debug$GT$3fmt17h9ab8b684d16b1783E+0x46>
    58e7:	48 c7 43 08 12 00 00 	movq   $0x12,0x8(%rbx)
    58ee:	00 
    58ef:	48 c7 03 01 00 00 00 	movq   $0x1,(%rbx)
    58f6:	83 c9 04             	or     $0x4,%ecx
    58f9:	89 4b 50             	mov    %ecx,0x50(%rbx)
    58fc:	49 8b 06             	mov    (%r14),%rax
    58ff:	48 89 44 24 08       	mov    %rax,0x8(%rsp)
    5904:	48 8d 7c 24 08       	lea    0x8(%rsp),%rdi
    5909:	48 89 de             	mov    %rbx,%rsi
    590c:	e8 bf ca 01 00       	callq  223d0 <_ZN4core3fmt3num55_$LT$impl$u20$core..fmt..LowerHex$u20$for$u20$usize$GT$3fmt17ha0f2cbf98b7e4328E>
    5911:	4c 89 3b             	mov    %r15,(%rbx)
    5914:	4c 89 63 08          	mov    %r12,0x8(%rbx)
    5918:	89 6b 50             	mov    %ebp,0x50(%rbx)
    591b:	48 83 c4 10          	add    $0x10,%rsp
    591f:	5b                   	pop    %rbx
    5920:	41 5c                	pop    %r12
    5922:	41 5e                	pop    %r14
    5924:	41 5f                	pop    %r15
    5926:	5d                   	pop    %rbp
    5927:	c3                   	retq   
    5928:	0f 1f 84 00 00 00 00 	nopl   0x0(%rax,%rax,1)
    592f:	00 

0000000000005930 <_ZN53_$LT$$RF$$u27$a$u20$T$u20$as$u20$core..fmt..Debug$GT$3fmt17hc7ab99ecc294b6c5E>:
    5930:	41 56                	push   %r14
    5932:	53                   	push   %rbx
    5933:	50                   	push   %rax
    5934:	48 89 f3             	mov    %rsi,%rbx
    5937:	4c 8b 37             	mov    (%rdi),%r14
    593a:	48 89 f7             	mov    %rsi,%rdi
    593d:	e8 be f9 01 00       	callq  25300 <_ZN4core3fmt9Formatter15debug_lower_hex17h88d269d2a584dd4eE>
    5942:	84 c0                	test   %al,%al
    5944:	74 12                	je     5958 <_ZN53_$LT$$RF$$u27$a$u20$T$u20$as$u20$core..fmt..Debug$GT$3fmt17hc7ab99ecc294b6c5E+0x28>
    5946:	4c 89 f7             	mov    %r14,%rdi
    5949:	48 89 de             	mov    %rbx,%rsi
    594c:	48 83 c4 08          	add    $0x8,%rsp
    5950:	5b                   	pop    %rbx
    5951:	41 5e                	pop    %r14
    5953:	e9 58 ca 01 00       	jmpq   223b0 <_ZN4core3fmt3num52_$LT$impl$u20$core..fmt..LowerHex$u20$for$u20$u8$GT$3fmt17hdb09aea86e4508a6E>
    5958:	48 89 df             	mov    %rbx,%rdi
    595b:	e8 b0 f9 01 00       	callq  25310 <_ZN4core3fmt9Formatter15debug_upper_hex17hd952264affc529f3E>
    5960:	4c 89 f7             	mov    %r14,%rdi
    5963:	48 89 de             	mov    %rbx,%rsi
    5966:	48 83 c4 08          	add    $0x8,%rsp
    596a:	84 c0                	test   %al,%al
    596c:	74 08                	je     5976 <_ZN53_$LT$$RF$$u27$a$u20$T$u20$as$u20$core..fmt..Debug$GT$3fmt17hc7ab99ecc294b6c5E+0x46>
    596e:	5b                   	pop    %rbx
    596f:	41 5e                	pop    %r14
    5971:	e9 4a ca 01 00       	jmpq   223c0 <_ZN4core3fmt3num52_$LT$impl$u20$core..fmt..UpperHex$u20$for$u20$u8$GT$3fmt17h5e9509afa6ac38e2E>
    5976:	5b                   	pop    %rbx
    5977:	41 5e                	pop    %r14
    5979:	e9 42 c6 01 00       	jmpq   21fc0 <_ZN4core3fmt3num51_$LT$impl$u20$core..fmt..Display$u20$for$u20$u8$GT$3fmt17h9454d2de04f5b1e4E>
    597e:	66 90                	xchg   %ax,%ax

0000000000005980 <_ZN53_$LT$$RF$$u27$a$u20$T$u20$as$u20$core..fmt..Debug$GT$3fmt17hcd32c1757b900881E>:
    5980:	41 56                	push   %r14
    5982:	53                   	push   %rbx
    5983:	50                   	push   %rax
    5984:	48 89 f3             	mov    %rsi,%rbx
    5987:	4c 8b 37             	mov    (%rdi),%r14
    598a:	48 89 f7             	mov    %rsi,%rdi
    598d:	e8 6e f9 01 00       	callq  25300 <_ZN4core3fmt9Formatter15debug_lower_hex17h88d269d2a584dd4eE>
    5992:	84 c0                	test   %al,%al
    5994:	74 12                	je     59a8 <_ZN53_$LT$$RF$$u27$a$u20$T$u20$as$u20$core..fmt..Debug$GT$3fmt17hcd32c1757b900881E+0x28>
    5996:	4c 89 f7             	mov    %r14,%rdi
    5999:	48 89 de             	mov    %rbx,%rsi
    599c:	48 83 c4 08          	add    $0x8,%rsp
    59a0:	5b                   	pop    %rbx
    59a1:	41 5e                	pop    %r14
    59a3:	e9 28 ca 01 00       	jmpq   223d0 <_ZN4core3fmt3num55_$LT$impl$u20$core..fmt..LowerHex$u20$for$u20$usize$GT$3fmt17ha0f2cbf98b7e4328E>
    59a8:	48 89 df             	mov    %rbx,%rdi
    59ab:	e8 60 f9 01 00       	callq  25310 <_ZN4core3fmt9Formatter15debug_upper_hex17hd952264affc529f3E>
    59b0:	4c 89 f7             	mov    %r14,%rdi
    59b3:	48 89 de             	mov    %rbx,%rsi
    59b6:	48 83 c4 08          	add    $0x8,%rsp
    59ba:	84 c0                	test   %al,%al
    59bc:	74 08                	je     59c6 <_ZN53_$LT$$RF$$u27$a$u20$T$u20$as$u20$core..fmt..Debug$GT$3fmt17hcd32c1757b900881E+0x46>
    59be:	5b                   	pop    %rbx
    59bf:	41 5e                	pop    %r14
    59c1:	e9 1a ca 01 00       	jmpq   223e0 <_ZN4core3fmt3num55_$LT$impl$u20$core..fmt..UpperHex$u20$for$u20$usize$GT$3fmt17hd9fec246b438ebedE>
    59c6:	5b                   	pop    %rbx
    59c7:	41 5e                	pop    %r14
    59c9:	e9 d2 c9 01 00       	jmpq   223a0 <_ZN4core3fmt3num54_$LT$impl$u20$core..fmt..Display$u20$for$u20$usize$GT$3fmt17h7469a71f9cf64348E>
    59ce:	66 90                	xchg   %ax,%ax

00000000000059d0 <_ZN53_$LT$$RF$$u27$a$u20$T$u20$as$u20$core..fmt..Debug$GT$3fmt17hdc1fd6738c7566f6E>:
    59d0:	41 56                	push   %r14
    59d2:	53                   	push   %rbx
    59d3:	50                   	push   %rax
    59d4:	48 89 f3             	mov    %rsi,%rbx
    59d7:	4c 8b 37             	mov    (%rdi),%r14
    59da:	48 89 f7             	mov    %rsi,%rdi
    59dd:	e8 1e f9 01 00       	callq  25300 <_ZN4core3fmt9Formatter15debug_lower_hex17h88d269d2a584dd4eE>
    59e2:	84 c0                	test   %al,%al
    59e4:	74 12                	je     59f8 <_ZN53_$LT$$RF$$u27$a$u20$T$u20$as$u20$core..fmt..Debug$GT$3fmt17hdc1fd6738c7566f6E+0x28>
    59e6:	4c 89 f7             	mov    %r14,%rdi
    59e9:	48 89 de             	mov    %rbx,%rsi
    59ec:	48 83 c4 08          	add    $0x8,%rsp
    59f0:	5b                   	pop    %rbx
    59f1:	41 5e                	pop    %r14
    59f3:	e9 48 c3 01 00       	jmpq   21d40 <_ZN4core3fmt3num53_$LT$impl$u20$core..fmt..LowerHex$u20$for$u20$i32$GT$3fmt17h0c4c159511fab36eE>
    59f8:	48 89 df             	mov    %rbx,%rdi
    59fb:	e8 10 f9 01 00       	callq  25310 <_ZN4core3fmt9Formatter15debug_upper_hex17hd952264affc529f3E>
    5a00:	4c 89 f7             	mov    %r14,%rdi
    5a03:	48 89 de             	mov    %rbx,%rsi
    5a06:	48 83 c4 08          	add    $0x8,%rsp
    5a0a:	84 c0                	test   %al,%al
    5a0c:	74 08                	je     5a16 <_ZN53_$LT$$RF$$u27$a$u20$T$u20$as$u20$core..fmt..Debug$GT$3fmt17hdc1fd6738c7566f6E+0x46>
    5a0e:	5b                   	pop    %rbx
    5a0f:	41 5e                	pop    %r14
    5a11:	e9 ca c3 01 00       	jmpq   21de0 <_ZN4core3fmt3num53_$LT$impl$u20$core..fmt..UpperHex$u20$for$u20$i32$GT$3fmt17h2510e5db98ac7265E>
    5a16:	5b                   	pop    %rbx
    5a17:	41 5e                	pop    %r14
    5a19:	e9 42 c6 01 00       	jmpq   22060 <_ZN4core3fmt3num52_$LT$impl$u20$core..fmt..Display$u20$for$u20$i32$GT$3fmt17hdab52a0b3d129bfbE>
    5a1e:	66 90                	xchg   %ax,%ax

0000000000005a20 <_ZN55_$LT$$RF$$u27$a$u20$T$u20$as$u20$core..fmt..Display$GT$3fmt17h14862c473d474531E>:
    5a20:	48 89 f0             	mov    %rsi,%rax
    5a23:	48 8b 0f             	mov    (%rdi),%rcx
    5a26:	48 8b 77 08          	mov    0x8(%rdi),%rsi
    5a2a:	48 89 cf             	mov    %rcx,%rdi
    5a2d:	48 89 c2             	mov    %rax,%rdx
    5a30:	e9 4b ff 01 00       	jmpq   25980 <_ZN42_$LT$str$u20$as$u20$core..fmt..Display$GT$3fmt17h29cbf648fab0706eE>
    5a35:	66 2e 0f 1f 84 00 00 	nopw   %cs:0x0(%rax,%rax,1)
    5a3c:	00 00 00 
    5a3f:	90                   	nop

0000000000005a40 <_ZN56_$LT$$RF$$u27$a$u20$T$u20$as$u20$core..fmt..UpperHex$GT$3fmt17hf6944e84debee9a8E>:
    5a40:	48 8b 3f             	mov    (%rdi),%rdi
    5a43:	e9 78 c9 01 00       	jmpq   223c0 <_ZN4core3fmt3num52_$LT$impl$u20$core..fmt..UpperHex$u20$for$u20$u8$GT$3fmt17h5e9509afa6ac38e2E>
    5a48:	0f 1f 84 00 00 00 00 	nopl   0x0(%rax,%rax,1)
    5a4f:	00 

0000000000005a50 <_ZN5alloc5alloc8box_free17h2ad8dc8a77c6f592E>:
    5a50:	be 18 00 00 00       	mov    $0x18,%esi
    5a55:	ba 08 00 00 00       	mov    $0x8,%edx
    5a5a:	e9 e1 fb ff ff       	jmpq   5640 <__rust_dealloc>
    5a5f:	90                   	nop

0000000000005a60 <_ZN5alloc5alloc8box_free17h74d69fd88824a794E>:
    5a60:	48 89 f0             	mov    %rsi,%rax
    5a63:	48 8b 76 08          	mov    0x8(%rsi),%rsi
    5a67:	48 85 f6             	test   %rsi,%rsi
    5a6a:	74 09                	je     5a75 <_ZN5alloc5alloc8box_free17h74d69fd88824a794E+0x15>
    5a6c:	48 8b 50 10          	mov    0x10(%rax),%rdx
    5a70:	e9 cb fb ff ff       	jmpq   5640 <__rust_dealloc>
    5a75:	c3                   	retq   
    5a76:	66 2e 0f 1f 84 00 00 	nopw   %cs:0x0(%rax,%rax,1)
    5a7d:	00 00 00 

0000000000005a80 <_ZN5alloc5alloc8box_free17ha51a6fc3cce93b49E.llvm.4413060258141956733>:
    5a80:	48 89 f0             	mov    %rsi,%rax
    5a83:	48 8b 76 08          	mov    0x8(%rsi),%rsi
    5a87:	48 85 f6             	test   %rsi,%rsi
    5a8a:	74 09                	je     5a95 <_ZN5alloc5alloc8box_free17ha51a6fc3cce93b49E.llvm.4413060258141956733+0x15>
    5a8c:	48 8b 50 10          	mov    0x10(%rax),%rdx
    5a90:	e9 ab fb ff ff       	jmpq   5640 <__rust_dealloc>
    5a95:	c3                   	retq   
    5a96:	66 2e 0f 1f 84 00 00 	nopw   %cs:0x0(%rax,%rax,1)
    5a9d:	00 00 00 

0000000000005aa0 <_ZN96_$LT$core..fmt..Write..write_fmt..Adapter$LT$$u27$a$C$$u20$T$GT$$u20$as$u20$core..fmt..Write$GT$10write_char17h2b3b0e2afb8b6f42E>:
    5aa0:	48 8b 3f             	mov    (%rdi),%rdi
    5aa3:	e9 18 10 00 00       	jmpq   6ac0 <_ZN4core3fmt5Write10write_char17h63ee3ff357d36232E>
    5aa8:	0f 1f 84 00 00 00 00 	nopl   0x0(%rax,%rax,1)
    5aaf:	00 

0000000000005ab0 <_ZN96_$LT$core..fmt..Write..write_fmt..Adapter$LT$$u27$a$C$$u20$T$GT$$u20$as$u20$core..fmt..Write$GT$10write_char17h7d1c255835474c96E>:
    5ab0:	48 8b 3f             	mov    (%rdi),%rdi
    5ab3:	e9 28 11 00 00       	jmpq   6be0 <_ZN4core3fmt5Write10write_char17hbb3146c31c2bd8f1E>
    5ab8:	0f 1f 84 00 00 00 00 	nopl   0x0(%rax,%rax,1)
    5abf:	00 

0000000000005ac0 <_ZN96_$LT$core..fmt..Write..write_fmt..Adapter$LT$$u27$a$C$$u20$T$GT$$u20$as$u20$core..fmt..Write$GT$10write_char17h9a316e01168003fbE>:
    5ac0:	55                   	push   %rbp
    5ac1:	53                   	push   %rbx
    5ac2:	50                   	push   %rax
    5ac3:	89 f5                	mov    %esi,%ebp
    5ac5:	48 8b 1f             	mov    (%rdi),%rbx
    5ac8:	81 fe 80 00 00 00    	cmp    $0x80,%esi
    5ace:	73 39                	jae    5b09 <_ZN96_$LT$core..fmt..Write..write_fmt..Adapter$LT$$u27$a$C$$u20$T$GT$$u20$as$u20$core..fmt..Write$GT$10write_char17h9a316e01168003fbE+0x49>
    5ad0:	48 8b 73 10          	mov    0x10(%rbx),%rsi
    5ad4:	48 3b 73 08          	cmp    0x8(%rbx),%rsi
    5ad8:	75 1e                	jne    5af8 <_ZN96_$LT$core..fmt..Write..write_fmt..Adapter$LT$$u27$a$C$$u20$T$GT$$u20$as$u20$core..fmt..Write$GT$10write_char17h9a316e01168003fbE+0x38>
    5ada:	ba 01 00 00 00       	mov    $0x1,%edx
    5adf:	b9 01 00 00 00       	mov    $0x1,%ecx
    5ae4:	48 89 df             	mov    %rbx,%rdi
    5ae7:	e8 24 52 00 00       	callq  ad10 <_ZN49_$LT$alloc..raw_vec..RawVec$LT$T$C$$u20$A$GT$$GT$16reserve_internal17ha2034e31ba44a768E.llvm.16155146218056170088>
    5aec:	3c 02                	cmp    $0x2,%al
    5aee:	0f 85 ec 00 00 00    	jne    5be0 <_ZN96_$LT$core..fmt..Write..write_fmt..Adapter$LT$$u27$a$C$$u20$T$GT$$u20$as$u20$core..fmt..Write$GT$10write_char17h9a316e01168003fbE+0x120>
    5af4:	48 8b 73 10          	mov    0x10(%rbx),%rsi
    5af8:	48 8b 03             	mov    (%rbx),%rax
    5afb:	40 88 2c 30          	mov    %bpl,(%rax,%rsi,1)
    5aff:	48 83 43 10 01       	addq   $0x1,0x10(%rbx)
    5b04:	e9 ce 00 00 00       	jmpq   5bd7 <_ZN96_$LT$core..fmt..Write..write_fmt..Adapter$LT$$u27$a$C$$u20$T$GT$$u20$as$u20$core..fmt..Write$GT$10write_char17h9a316e01168003fbE+0x117>
    5b09:	c7 44 24 04 00 00 00 	movl   $0x0,0x4(%rsp)
    5b10:	00 
    5b11:	89 e8                	mov    %ebp,%eax
    5b13:	81 fd 00 08 00 00    	cmp    $0x800,%ebp
    5b19:	73 1f                	jae    5b3a <_ZN96_$LT$core..fmt..Write..write_fmt..Adapter$LT$$u27$a$C$$u20$T$GT$$u20$as$u20$core..fmt..Write$GT$10write_char17h9a316e01168003fbE+0x7a>
    5b1b:	c1 e8 06             	shr    $0x6,%eax
    5b1e:	24 1f                	and    $0x1f,%al
    5b20:	0c c0                	or     $0xc0,%al
    5b22:	88 44 24 04          	mov    %al,0x4(%rsp)
    5b26:	40 80 e5 3f          	and    $0x3f,%bpl
    5b2a:	40 80 cd 80          	or     $0x80,%bpl
    5b2e:	40 88 6c 24 05       	mov    %bpl,0x5(%rsp)
    5b33:	bd 02 00 00 00       	mov    $0x2,%ebp
    5b38:	eb 69                	jmp    5ba3 <_ZN96_$LT$core..fmt..Write..write_fmt..Adapter$LT$$u27$a$C$$u20$T$GT$$u20$as$u20$core..fmt..Write$GT$10write_char17h9a316e01168003fbE+0xe3>
    5b3a:	81 fd ff ff 00 00    	cmp    $0xffff,%ebp
    5b40:	77 2c                	ja     5b6e <_ZN96_$LT$core..fmt..Write..write_fmt..Adapter$LT$$u27$a$C$$u20$T$GT$$u20$as$u20$core..fmt..Write$GT$10write_char17h9a316e01168003fbE+0xae>
    5b42:	c1 e8 0c             	shr    $0xc,%eax
    5b45:	24 0f                	and    $0xf,%al
    5b47:	0c e0                	or     $0xe0,%al
    5b49:	88 44 24 04          	mov    %al,0x4(%rsp)
    5b4d:	89 e8                	mov    %ebp,%eax
    5b4f:	c1 e8 06             	shr    $0x6,%eax
    5b52:	24 3f                	and    $0x3f,%al
    5b54:	0c 80                	or     $0x80,%al
    5b56:	88 44 24 05          	mov    %al,0x5(%rsp)
    5b5a:	40 80 e5 3f          	and    $0x3f,%bpl
    5b5e:	40 80 cd 80          	or     $0x80,%bpl
    5b62:	40 88 6c 24 06       	mov    %bpl,0x6(%rsp)
    5b67:	bd 03 00 00 00       	mov    $0x3,%ebp
    5b6c:	eb 35                	jmp    5ba3 <_ZN96_$LT$core..fmt..Write..write_fmt..Adapter$LT$$u27$a$C$$u20$T$GT$$u20$as$u20$core..fmt..Write$GT$10write_char17h9a316e01168003fbE+0xe3>
    5b6e:	c1 e8 12             	shr    $0x12,%eax
    5b71:	0c f0                	or     $0xf0,%al
    5b73:	88 44 24 04          	mov    %al,0x4(%rsp)
    5b77:	89 e8                	mov    %ebp,%eax
    5b79:	c1 e8 0c             	shr    $0xc,%eax
    5b7c:	24 3f                	and    $0x3f,%al
    5b7e:	0c 80                	or     $0x80,%al
    5b80:	88 44 24 05          	mov    %al,0x5(%rsp)
    5b84:	89 e8                	mov    %ebp,%eax
    5b86:	c1 e8 06             	shr    $0x6,%eax
    5b89:	24 3f                	and    $0x3f,%al
    5b8b:	0c 80                	or     $0x80,%al
    5b8d:	88 44 24 06          	mov    %al,0x6(%rsp)
    5b91:	40 80 e5 3f          	and    $0x3f,%bpl
    5b95:	40 80 cd 80          	or     $0x80,%bpl
    5b99:	40 88 6c 24 07       	mov    %bpl,0x7(%rsp)
    5b9e:	bd 04 00 00 00       	mov    $0x4,%ebp
    5ba3:	48 8b 73 10          	mov    0x10(%rbx),%rsi
    5ba7:	b9 01 00 00 00       	mov    $0x1,%ecx
    5bac:	48 89 df             	mov    %rbx,%rdi
    5baf:	48 89 ea             	mov    %rbp,%rdx
    5bb2:	e8 59 51 00 00       	callq  ad10 <_ZN49_$LT$alloc..raw_vec..RawVec$LT$T$C$$u20$A$GT$$GT$16reserve_internal17ha2034e31ba44a768E.llvm.16155146218056170088>
    5bb7:	3c 02                	cmp    $0x2,%al
    5bb9:	75 25                	jne    5be0 <_ZN96_$LT$core..fmt..Write..write_fmt..Adapter$LT$$u27$a$C$$u20$T$GT$$u20$as$u20$core..fmt..Write$GT$10write_char17h9a316e01168003fbE+0x120>
    5bbb:	48 8b 7b 10          	mov    0x10(%rbx),%rdi
    5bbf:	48 8d 04 2f          	lea    (%rdi,%rbp,1),%rax
    5bc3:	48 89 43 10          	mov    %rax,0x10(%rbx)
    5bc7:	48 03 3b             	add    (%rbx),%rdi
    5bca:	48 8d 74 24 04       	lea    0x4(%rsp),%rsi
    5bcf:	48 89 ea             	mov    %rbp,%rdx
    5bd2:	e8 89 e0 ff ff       	callq  3c60 <memcpy@plt>
    5bd7:	31 c0                	xor    %eax,%eax
    5bd9:	48 83 c4 08          	add    $0x8,%rsp
    5bdd:	5b                   	pop    %rbx
    5bde:	5d                   	pop    %rbp
    5bdf:	c3                   	retq   
    5be0:	a8 01                	test   $0x1,%al
    5be2:	75 07                	jne    5beb <_ZN96_$LT$core..fmt..Write..write_fmt..Adapter$LT$$u27$a$C$$u20$T$GT$$u20$as$u20$core..fmt..Write$GT$10write_char17h9a316e01168003fbE+0x12b>
    5be4:	e8 37 bd 01 00       	callq  21920 <_ZN5alloc7raw_vec17capacity_overflow17ha447f3f07724bc99E>
    5be9:	0f 0b                	ud2    
    5beb:	48 8d 3d be f4 22 00 	lea    0x22f4be(%rip),%rdi        # 2350b0 <anon.238564c5f880854ddf42136e3ad0cdc1.5.llvm.16155146218056170088>
    5bf2:	e8 99 13 02 00       	callq  26f90 <_ZN4core9panicking5panic17ha7de372c9886ba85E>
    5bf7:	0f 0b                	ud2    
    5bf9:	0f 1f 80 00 00 00 00 	nopl   0x0(%rax)

0000000000005c00 <_ZN96_$LT$core..fmt..Write..write_fmt..Adapter$LT$$u27$a$C$$u20$T$GT$$u20$as$u20$core..fmt..Write$GT$9write_fmt17h345e4148f0efda2eE>:
    5c00:	48 83 ec 48          	sub    $0x48,%rsp
    5c04:	48 8b 07             	mov    (%rdi),%rax
    5c07:	48 89 44 24 08       	mov    %rax,0x8(%rsp)
    5c0c:	0f 10 06             	movups (%rsi),%xmm0
    5c0f:	0f 10 4e 10          	movups 0x10(%rsi),%xmm1
    5c13:	0f 10 56 20          	movups 0x20(%rsi),%xmm2
    5c17:	0f 29 54 24 30       	movaps %xmm2,0x30(%rsp)
    5c1c:	0f 29 4c 24 20       	movaps %xmm1,0x20(%rsp)
    5c21:	0f 29 44 24 10       	movaps %xmm0,0x10(%rsp)
    5c26:	48 8d 35 63 f0 22 00 	lea    0x22f063(%rip),%rsi        # 234c90 <anon.d1524665a986ace7e27b3430087f173a.1.llvm.13870965413749014346>
    5c2d:	48 8d 7c 24 08       	lea    0x8(%rsp),%rdi
    5c32:	48 8d 54 24 10       	lea    0x10(%rsp),%rdx
    5c37:	e8 04 e8 01 00       	callq  24440 <_ZN4core3fmt5write17h55e323aea9a5cd4eE>
    5c3c:	48 83 c4 48          	add    $0x48,%rsp
    5c40:	c3                   	retq   
    5c41:	66 2e 0f 1f 84 00 00 	nopw   %cs:0x0(%rax,%rax,1)
    5c48:	00 00 00 
    5c4b:	0f 1f 44 00 00       	nopl   0x0(%rax,%rax,1)

0000000000005c50 <_ZN96_$LT$core..fmt..Write..write_fmt..Adapter$LT$$u27$a$C$$u20$T$GT$$u20$as$u20$core..fmt..Write$GT$9write_fmt17h36137092d79727faE>:
    5c50:	48 83 ec 48          	sub    $0x48,%rsp
    5c54:	48 8b 07             	mov    (%rdi),%rax
    5c57:	48 89 44 24 08       	mov    %rax,0x8(%rsp)
    5c5c:	0f 10 06             	movups (%rsi),%xmm0
    5c5f:	0f 10 4e 10          	movups 0x10(%rsi),%xmm1
    5c63:	0f 10 56 20          	movups 0x20(%rsi),%xmm2
    5c67:	0f 29 54 24 30       	movaps %xmm2,0x30(%rsp)
    5c6c:	0f 29 4c 24 20       	movaps %xmm1,0x20(%rsp)
    5c71:	0f 29 44 24 10       	movaps %xmm0,0x10(%rsp)
    5c76:	48 8d 35 43 f0 22 00 	lea    0x22f043(%rip),%rsi        # 234cc0 <anon.d1524665a986ace7e27b3430087f173a.2.llvm.13870965413749014346>
    5c7d:	48 8d 7c 24 08       	lea    0x8(%rsp),%rdi
    5c82:	48 8d 54 24 10       	lea    0x10(%rsp),%rdx
    5c87:	e8 b4 e7 01 00       	callq  24440 <_ZN4core3fmt5write17h55e323aea9a5cd4eE>
    5c8c:	48 83 c4 48          	add    $0x48,%rsp
    5c90:	c3                   	retq   
    5c91:	66 2e 0f 1f 84 00 00 	nopw   %cs:0x0(%rax,%rax,1)
    5c98:	00 00 00 
    5c9b:	0f 1f 44 00 00       	nopl   0x0(%rax,%rax,1)

0000000000005ca0 <_ZN96_$LT$core..fmt..Write..write_fmt..Adapter$LT$$u27$a$C$$u20$T$GT$$u20$as$u20$core..fmt..Write$GT$9write_fmt17h6d28b91a999e0dbdE>:
    5ca0:	48 83 ec 48          	sub    $0x48,%rsp
    5ca4:	48 8b 07             	mov    (%rdi),%rax
    5ca7:	48 89 44 24 08       	mov    %rax,0x8(%rsp)
    5cac:	0f 10 06             	movups (%rsi),%xmm0
    5caf:	0f 10 4e 10          	movups 0x10(%rsi),%xmm1
    5cb3:	0f 10 56 20          	movups 0x20(%rsi),%xmm2
    5cb7:	0f 29 54 24 30       	movaps %xmm2,0x30(%rsp)
    5cbc:	0f 29 4c 24 20       	movaps %xmm1,0x20(%rsp)
    5cc1:	0f 29 44 24 10       	movaps %xmm0,0x10(%rsp)
    5cc6:	48 8d 35 6b f1 22 00 	lea    0x22f16b(%rip),%rsi        # 234e38 <anon.c67185854452041a5c739e997a7753d8.1.llvm.17212113400511713131>
    5ccd:	48 8d 7c 24 08       	lea    0x8(%rsp),%rdi
    5cd2:	48 8d 54 24 10       	lea    0x10(%rsp),%rdx
    5cd7:	e8 64 e7 01 00       	callq  24440 <_ZN4core3fmt5write17h55e323aea9a5cd4eE>
    5cdc:	48 83 c4 48          	add    $0x48,%rsp
    5ce0:	c3                   	retq   
    5ce1:	66 2e 0f 1f 84 00 00 	nopw   %cs:0x0(%rax,%rax,1)
    5ce8:	00 00 00 
    5ceb:	0f 1f 44 00 00       	nopl   0x0(%rax,%rax,1)

0000000000005cf0 <_ZN96_$LT$core..fmt..Write..write_fmt..Adapter$LT$$u27$a$C$$u20$T$GT$$u20$as$u20$core..fmt..Write$GT$9write_str17h217300e5169de59bE>:
    5cf0:	53                   	push   %rbx
    5cf1:	48 83 ec 20          	sub    $0x20,%rsp
    5cf5:	48 89 d0             	mov    %rdx,%rax
    5cf8:	48 89 f1             	mov    %rsi,%rcx
    5cfb:	48 8b 1f             	mov    (%rdi),%rbx
    5cfe:	48 8b 33             	mov    (%rbx),%rsi
    5d01:	48 8d 7c 24 10       	lea    0x10(%rsp),%rdi
    5d06:	48 89 ca             	mov    %rcx,%rdx
    5d09:	48 89 c1             	mov    %rax,%rcx
    5d0c:	e8 3f 55 00 00       	callq  b250 <_ZN3std2io5Write9write_all17hb9623f3be4c5b3bfE>
    5d11:	80 7c 24 10 03       	cmpb   $0x3,0x10(%rsp)
    5d16:	75 04                	jne    5d1c <_ZN96_$LT$core..fmt..Write..write_fmt..Adapter$LT$$u27$a$C$$u20$T$GT$$u20$as$u20$core..fmt..Write$GT$9write_str17h217300e5169de59bE+0x2c>
    5d18:	31 c0                	xor    %eax,%eax
    5d1a:	eb 24                	jmp    5d40 <_ZN96_$LT$core..fmt..Write..write_fmt..Adapter$LT$$u27$a$C$$u20$T$GT$$u20$as$u20$core..fmt..Write$GT$9write_str17h217300e5169de59bE+0x50>
    5d1c:	0f 10 44 24 10       	movups 0x10(%rsp),%xmm0
    5d21:	0f 29 04 24          	movaps %xmm0,(%rsp)
    5d25:	80 7b 08 03          	cmpb   $0x3,0x8(%rbx)
    5d29:	48 8d 5b 08          	lea    0x8(%rbx),%rbx
    5d2d:	74 08                	je     5d37 <_ZN96_$LT$core..fmt..Write..write_fmt..Adapter$LT$$u27$a$C$$u20$T$GT$$u20$as$u20$core..fmt..Write$GT$9write_str17h217300e5169de59bE+0x47>
    5d2f:	48 89 df             	mov    %rbx,%rdi
    5d32:	e8 59 10 00 00       	callq  6d90 <_ZN4core3ptr13drop_in_place17h913f9cf9e1d457c8E.llvm.13870965413749014346>
    5d37:	0f 28 04 24          	movaps (%rsp),%xmm0
    5d3b:	0f 11 03             	movups %xmm0,(%rbx)
    5d3e:	b0 01                	mov    $0x1,%al
    5d40:	48 83 c4 20          	add    $0x20,%rsp
    5d44:	5b                   	pop    %rbx
    5d45:	c3                   	retq   
    5d46:	0f 28 04 24          	movaps (%rsp),%xmm0
    5d4a:	0f 11 03             	movups %xmm0,(%rbx)
    5d4d:	48 89 c7             	mov    %rax,%rdi
    5d50:	e8 eb e0 ff ff       	callq  3e40 <_Unwind_Resume@plt>
    5d55:	0f 0b                	ud2    
    5d57:	66 0f 1f 84 00 00 00 	nopw   0x0(%rax,%rax,1)
    5d5e:	00 00 

0000000000005d60 <_ZN96_$LT$core..fmt..Write..write_fmt..Adapter$LT$$u27$a$C$$u20$T$GT$$u20$as$u20$core..fmt..Write$GT$9write_str17h6441d548ee5fa012E>:
    5d60:	53                   	push   %rbx
    5d61:	48 83 ec 20          	sub    $0x20,%rsp
    5d65:	48 89 d0             	mov    %rdx,%rax
    5d68:	48 89 f1             	mov    %rsi,%rcx
    5d6b:	48 8b 1f             	mov    (%rdi),%rbx
    5d6e:	48 8b 33             	mov    (%rbx),%rsi
    5d71:	48 8d 7c 24 10       	lea    0x10(%rsp),%rdi
    5d76:	48 89 ca             	mov    %rcx,%rdx
    5d79:	48 89 c1             	mov    %rax,%rcx
    5d7c:	e8 3f 27 00 00       	callq  84c0 <_ZN3std2io5Write9write_all17h96277aaeed5f7a02E>
    5d81:	80 7c 24 10 03       	cmpb   $0x3,0x10(%rsp)
    5d86:	75 04                	jne    5d8c <_ZN96_$LT$core..fmt..Write..write_fmt..Adapter$LT$$u27$a$C$$u20$T$GT$$u20$as$u20$core..fmt..Write$GT$9write_str17h6441d548ee5fa012E+0x2c>
    5d88:	31 c0                	xor    %eax,%eax
    5d8a:	eb 24                	jmp    5db0 <_ZN96_$LT$core..fmt..Write..write_fmt..Adapter$LT$$u27$a$C$$u20$T$GT$$u20$as$u20$core..fmt..Write$GT$9write_str17h6441d548ee5fa012E+0x50>
    5d8c:	0f 10 44 24 10       	movups 0x10(%rsp),%xmm0
    5d91:	0f 29 04 24          	movaps %xmm0,(%rsp)
    5d95:	80 7b 08 03          	cmpb   $0x3,0x8(%rbx)
    5d99:	48 8d 5b 08          	lea    0x8(%rbx),%rbx
    5d9d:	74 08                	je     5da7 <_ZN96_$LT$core..fmt..Write..write_fmt..Adapter$LT$$u27$a$C$$u20$T$GT$$u20$as$u20$core..fmt..Write$GT$9write_str17h6441d548ee5fa012E+0x47>
    5d9f:	48 89 df             	mov    %rbx,%rdi
    5da2:	e8 e9 0f 00 00       	callq  6d90 <_ZN4core3ptr13drop_in_place17h913f9cf9e1d457c8E.llvm.13870965413749014346>
    5da7:	0f 28 04 24          	movaps (%rsp),%xmm0
    5dab:	0f 11 03             	movups %xmm0,(%rbx)
    5dae:	b0 01                	mov    $0x1,%al
    5db0:	48 83 c4 20          	add    $0x20,%rsp
    5db4:	5b                   	pop    %rbx
    5db5:	c3                   	retq   
    5db6:	0f 28 04 24          	movaps (%rsp),%xmm0
    5dba:	0f 11 03             	movups %xmm0,(%rbx)
    5dbd:	48 89 c7             	mov    %rax,%rdi
    5dc0:	e8 7b e0 ff ff       	callq  3e40 <_Unwind_Resume@plt>
    5dc5:	0f 0b                	ud2    
    5dc7:	66 0f 1f 84 00 00 00 	nopw   0x0(%rax,%rax,1)
    5dce:	00 00 

0000000000005dd0 <_ZN96_$LT$core..fmt..Write..write_fmt..Adapter$LT$$u27$a$C$$u20$T$GT$$u20$as$u20$core..fmt..Write$GT$9write_str17hf2f0824376241991E>:
    5dd0:	41 57                	push   %r15
    5dd2:	41 56                	push   %r14
    5dd4:	53                   	push   %rbx
    5dd5:	49 89 d7             	mov    %rdx,%r15
    5dd8:	49 89 f6             	mov    %rsi,%r14
    5ddb:	48 8b 1f             	mov    (%rdi),%rbx
    5dde:	48 8b 73 10          	mov    0x10(%rbx),%rsi
    5de2:	b9 01 00 00 00       	mov    $0x1,%ecx
    5de7:	48 89 df             	mov    %rbx,%rdi
    5dea:	e8 21 4f 00 00       	callq  ad10 <_ZN49_$LT$alloc..raw_vec..RawVec$LT$T$C$$u20$A$GT$$GT$16reserve_internal17ha2034e31ba44a768E.llvm.16155146218056170088>
    5def:	3c 02                	cmp    $0x2,%al
    5df1:	75 22                	jne    5e15 <_ZN96_$LT$core..fmt..Write..write_fmt..Adapter$LT$$u27$a$C$$u20$T$GT$$u20$as$u20$core..fmt..Write$GT$9write_str17hf2f0824376241991E+0x45>
    5df3:	48 8b 7b 10          	mov    0x10(%rbx),%rdi
    5df7:	4a 8d 04 3f          	lea    (%rdi,%r15,1),%rax
    5dfb:	48 89 43 10          	mov    %rax,0x10(%rbx)
    5dff:	48 03 3b             	add    (%rbx),%rdi
    5e02:	4c 89 f6             	mov    %r14,%rsi
    5e05:	4c 89 fa             	mov    %r15,%rdx
    5e08:	e8 53 de ff ff       	callq  3c60 <memcpy@plt>
    5e0d:	31 c0                	xor    %eax,%eax
    5e0f:	5b                   	pop    %rbx
    5e10:	41 5e                	pop    %r14
    5e12:	41 5f                	pop    %r15
    5e14:	c3                   	retq   
    5e15:	a8 01                	test   $0x1,%al
    5e17:	75 07                	jne    5e20 <_ZN96_$LT$core..fmt..Write..write_fmt..Adapter$LT$$u27$a$C$$u20$T$GT$$u20$as$u20$core..fmt..Write$GT$9write_str17hf2f0824376241991E+0x50>
    5e19:	e8 02 bb 01 00       	callq  21920 <_ZN5alloc7raw_vec17capacity_overflow17ha447f3f07724bc99E>
    5e1e:	0f 0b                	ud2    
    5e20:	48 8d 3d 89 f2 22 00 	lea    0x22f289(%rip),%rdi        # 2350b0 <anon.238564c5f880854ddf42136e3ad0cdc1.5.llvm.16155146218056170088>
    5e27:	e8 64 11 02 00       	callq  26f90 <_ZN4core9panicking5panic17ha7de372c9886ba85E>
    5e2c:	0f 0b                	ud2    
    5e2e:	66 90                	xchg   %ax,%ax

0000000000005e30 <_ZN46_$LT$std..io..buffered..BufWriter$LT$W$GT$$GT$9flush_buf17h511c83f468da2709E.llvm.4413060258141956733>:
    5e30:	55                   	push   %rbp
    5e31:	41 57                	push   %r15
    5e33:	41 56                	push   %r14
    5e35:	41 55                	push   %r13
    5e37:	41 54                	push   %r12
    5e39:	53                   	push   %rbx
    5e3a:	48 83 ec 48          	sub    $0x48,%rsp
    5e3e:	48 89 fd             	mov    %rdi,%rbp
    5e41:	4c 8b 76 10          	mov    0x10(%rsi),%r14
    5e45:	c6 04 24 03          	movb   $0x3,(%rsp)
    5e49:	4d 85 f6             	test   %r14,%r14
    5e4c:	0f 84 3d 01 00 00    	je     5f8f <_ZN46_$LT$std..io..buffered..BufWriter$LT$W$GT$$GT$9flush_buf17h511c83f468da2709E.llvm.4413060258141956733+0x15f>
    5e52:	49 89 f4             	mov    %rsi,%r12
    5e55:	48 89 6c 24 30       	mov    %rbp,0x30(%rsp)
    5e5a:	40 8a 6e 18          	mov    0x18(%rsi),%bpl
    5e5e:	4c 8b 2e             	mov    (%rsi),%r13
    5e61:	31 db                	xor    %ebx,%ebx
    5e63:	66 2e 0f 1f 84 00 00 	nopw   %cs:0x0(%rax,%rax,1)
    5e6a:	00 00 00 
    5e6d:	0f 1f 00             	nopl   (%rax)
    5e70:	41 c6 44 24 19 01    	movb   $0x1,0x19(%r12)
    5e76:	40 80 fd 02          	cmp    $0x2,%bpl
    5e7a:	0f 84 47 01 00 00    	je     5fc7 <_ZN46_$LT$std..io..buffered..BufWriter$LT$W$GT$$GT$9flush_buf17h511c83f468da2709E.llvm.4413060258141956733+0x197>
    5e80:	4d 89 f7             	mov    %r14,%r15
    5e83:	49 29 df             	sub    %rbx,%r15
    5e86:	0f 82 49 01 00 00    	jb     5fd5 <_ZN46_$LT$std..io..buffered..BufWriter$LT$W$GT$$GT$9flush_buf17h511c83f468da2709E.llvm.4413060258141956733+0x1a5>
    5e8c:	40 80 fd 01          	cmp    $0x1,%bpl
    5e90:	75 1e                	jne    5eb0 <_ZN46_$LT$std..io..buffered..BufWriter$LT$W$GT$$GT$9flush_buf17h511c83f468da2709E.llvm.4413060258141956733+0x80>
    5e92:	4c 89 7c 24 20       	mov    %r15,0x20(%rsp)
    5e97:	48 c7 44 24 18 00 00 	movq   $0x0,0x18(%rsp)
    5e9e:	00 00 
    5ea0:	eb 45                	jmp    5ee7 <_ZN46_$LT$std..io..buffered..BufWriter$LT$W$GT$$GT$9flush_buf17h511c83f468da2709E.llvm.4413060258141956733+0xb7>
    5ea2:	66 2e 0f 1f 84 00 00 	nopw   %cs:0x0(%rax,%rax,1)
    5ea9:	00 00 00 
    5eac:	0f 1f 40 00          	nopl   0x0(%rax)
    5eb0:	4a 8d 34 2b          	lea    (%rbx,%r13,1),%rsi
    5eb4:	4c 89 fa             	mov    %r15,%rdx
    5eb7:	4d 85 ff             	test   %r15,%r15
    5eba:	79 0a                	jns    5ec6 <_ZN46_$LT$std..io..buffered..BufWriter$LT$W$GT$$GT$9flush_buf17h511c83f468da2709E.llvm.4413060258141956733+0x96>
    5ebc:	48 ba ff ff ff ff ff 	movabs $0x7fffffffffffffff,%rdx
    5ec3:	ff ff 7f 
    5ec6:	bf 01 00 00 00       	mov    $0x1,%edi
    5ecb:	e8 50 db ff ff       	callq  3a20 <write@plt>
    5ed0:	48 83 f8 ff          	cmp    $0xffffffffffffffff,%rax
    5ed4:	74 2a                	je     5f00 <_ZN46_$LT$std..io..buffered..BufWriter$LT$W$GT$$GT$9flush_buf17h511c83f468da2709E.llvm.4413060258141956733+0xd0>
    5ed6:	48 c7 44 24 18 00 00 	movq   $0x0,0x18(%rsp)
    5edd:	00 00 
    5edf:	48 89 44 24 20       	mov    %rax,0x20(%rsp)
    5ee4:	49 89 c7             	mov    %rax,%r15
    5ee7:	41 c6 44 24 19 00    	movb   $0x0,0x19(%r12)
    5eed:	4d 85 ff             	test   %r15,%r15
    5ef0:	74 49                	je     5f3b <_ZN46_$LT$std..io..buffered..BufWriter$LT$W$GT$$GT$9flush_buf17h511c83f468da2709E.llvm.4413060258141956733+0x10b>
    5ef2:	4c 01 fb             	add    %r15,%rbx
    5ef5:	4c 39 f3             	cmp    %r14,%rbx
    5ef8:	0f 82 72 ff ff ff    	jb     5e70 <_ZN46_$LT$std..io..buffered..BufWriter$LT$W$GT$$GT$9flush_buf17h511c83f468da2709E.llvm.4413060258141956733+0x40>
    5efe:	eb 5f                	jmp    5f5f <_ZN46_$LT$std..io..buffered..BufWriter$LT$W$GT$$GT$9flush_buf17h511c83f468da2709E.llvm.4413060258141956733+0x12f>
    5f00:	e8 bb da ff ff       	callq  39c0 <__errno_location@plt>
    5f05:	8b 38                	mov    (%rax),%edi
    5f07:	48 83 ff 09          	cmp    $0x9,%rdi
    5f0b:	74 85                	je     5e92 <_ZN46_$LT$std..io..buffered..BufWriter$LT$W$GT$$GT$9flush_buf17h511c83f468da2709E.llvm.4413060258141956733+0x62>
    5f0d:	48 89 f8             	mov    %rdi,%rax
    5f10:	48 c1 e0 20          	shl    $0x20,%rax
    5f14:	48 c7 44 24 18 01 00 	movq   $0x1,0x18(%rsp)
    5f1b:	00 00 
    5f1d:	48 89 44 24 20       	mov    %rax,0x20(%rsp)
    5f22:	41 c6 44 24 19 00    	movb   $0x0,0x19(%r12)
    5f28:	e8 f3 96 00 00       	callq  f620 <_ZN3std3sys4unix17decode_error_kind17h01ffb953a9c70c44E>
    5f2d:	3c 0f                	cmp    $0xf,%al
    5f2f:	74 c4                	je     5ef5 <_ZN46_$LT$std..io..buffered..BufWriter$LT$W$GT$$GT$9flush_buf17h511c83f468da2709E.llvm.4413060258141956733+0xc5>
    5f31:	48 8d 44 24 20       	lea    0x20(%rsp),%rax
    5f36:	0f 10 00             	movups (%rax),%xmm0
    5f39:	eb 20                	jmp    5f5b <_ZN46_$LT$std..io..buffered..BufWriter$LT$W$GT$$GT$9flush_buf17h511c83f468da2709E.llvm.4413060258141956733+0x12b>
    5f3b:	48 8d 15 9d 19 02 00 	lea    0x2199d(%rip),%rdx        # 278df <_ZN4play6GLOBAL17h6391985a871b6f5eE+0x19f>
    5f42:	48 8d 7c 24 38       	lea    0x38(%rsp),%rdi
    5f47:	be 0e 00 00 00       	mov    $0xe,%esi
    5f4c:	b9 21 00 00 00       	mov    $0x21,%ecx
    5f51:	e8 4a f5 00 00       	callq  154a0 <_ZN3std2io5error5Error3new17h08cadb60e3817258E>
    5f56:	0f 10 44 24 38       	movups 0x38(%rsp),%xmm0
    5f5b:	0f 29 04 24          	movaps %xmm0,(%rsp)
    5f5f:	48 85 db             	test   %rbx,%rbx
    5f62:	48 8b 6c 24 30       	mov    0x30(%rsp),%rbp
    5f67:	74 26                	je     5f8f <_ZN46_$LT$std..io..buffered..BufWriter$LT$W$GT$$GT$9flush_buf17h511c83f468da2709E.llvm.4413060258141956733+0x15f>
    5f69:	49 29 de             	sub    %rbx,%r14
    5f6c:	72 74                	jb     5fe2 <_ZN46_$LT$std..io..buffered..BufWriter$LT$W$GT$$GT$9flush_buf17h511c83f468da2709E.llvm.4413060258141956733+0x1b2>
    5f6e:	49 c7 44 24 10 00 00 	movq   $0x0,0x10(%r12)
    5f75:	00 00 
    5f77:	74 16                	je     5f8f <_ZN46_$LT$std..io..buffered..BufWriter$LT$W$GT$$GT$9flush_buf17h511c83f468da2709E.llvm.4413060258141956733+0x15f>
    5f79:	4c 01 eb             	add    %r13,%rbx
    5f7c:	4c 89 ef             	mov    %r13,%rdi
    5f7f:	48 89 de             	mov    %rbx,%rsi
    5f82:	4c 89 f2             	mov    %r14,%rdx
    5f85:	e8 e6 dd ff ff       	callq  3d70 <memmove@plt>
    5f8a:	4d 89 74 24 10       	mov    %r14,0x10(%r12)
    5f8f:	8a 04 24             	mov    (%rsp),%al
    5f92:	88 45 00             	mov    %al,0x0(%rbp)
    5f95:	48 8b 44 24 01       	mov    0x1(%rsp),%rax
    5f9a:	48 89 45 01          	mov    %rax,0x1(%rbp)
    5f9e:	8b 44 24 09          	mov    0x9(%rsp),%eax
    5fa2:	89 45 09             	mov    %eax,0x9(%rbp)
    5fa5:	0f b7 44 24 0d       	movzwl 0xd(%rsp),%eax
    5faa:	66 89 45 0d          	mov    %ax,0xd(%rbp)
    5fae:	8a 44 24 0f          	mov    0xf(%rsp),%al
    5fb2:	88 45 0f             	mov    %al,0xf(%rbp)
    5fb5:	48 89 e8             	mov    %rbp,%rax
    5fb8:	48 83 c4 48          	add    $0x48,%rsp
    5fbc:	5b                   	pop    %rbx
    5fbd:	41 5c                	pop    %r12
    5fbf:	41 5d                	pop    %r13
    5fc1:	41 5e                	pop    %r14
    5fc3:	41 5f                	pop    %r15
    5fc5:	5d                   	pop    %rbp
    5fc6:	c3                   	retq   
    5fc7:	48 8d 3d 72 ec 22 00 	lea    0x22ec72(%rip),%rdi        # 234c40 <anon.476eb5c597866c46477165e1fe069f35.2.llvm.4413060258141956733>
    5fce:	e8 bd 0f 02 00       	callq  26f90 <_ZN4core9panicking5panic17ha7de372c9886ba85E>
    5fd3:	eb 0b                	jmp    5fe0 <_ZN46_$LT$std..io..buffered..BufWriter$LT$W$GT$$GT$9flush_buf17h511c83f468da2709E.llvm.4413060258141956733+0x1b0>
    5fd5:	48 89 df             	mov    %rbx,%rdi
    5fd8:	4c 89 f6             	mov    %r14,%rsi
    5fdb:	e8 a0 cb 01 00       	callq  22b80 <_ZN4core5slice22slice_index_order_fail17h9365e39c1bb77066E>
    5fe0:	0f 0b                	ud2    
    5fe2:	48 8d 3d e7 f2 22 00 	lea    0x22f2e7(%rip),%rdi        # 2352d0 <anon.06d757b6051832094d89986a0a8f93fd.4.llvm.16971914070871203310>
    5fe9:	e8 a2 0f 02 00       	callq  26f90 <_ZN4core9panicking5panic17ha7de372c9886ba85E>
    5fee:	eb f0                	jmp    5fe0 <_ZN46_$LT$std..io..buffered..BufWriter$LT$W$GT$$GT$9flush_buf17h511c83f468da2709E.llvm.4413060258141956733+0x1b0>
    5ff0:	48 89 c3             	mov    %rax,%rbx
    5ff3:	eb 0d                	jmp    6002 <_ZN46_$LT$std..io..buffered..BufWriter$LT$W$GT$$GT$9flush_buf17h511c83f468da2709E.llvm.4413060258141956733+0x1d2>
    5ff5:	48 89 c3             	mov    %rax,%rbx
    5ff8:	48 8d 7c 24 18       	lea    0x18(%rsp),%rdi
    5ffd:	e8 7e f6 ff ff       	callq  5680 <_ZN4core3ptr13drop_in_place17h21fa1f0bdadd4f4aE.llvm.4413060258141956733>
    6002:	48 89 e7             	mov    %rsp,%rdi
    6005:	e8 86 f6 ff ff       	callq  5690 <_ZN4core3ptr13drop_in_place17h2fc5e6e1db06c89cE>
    600a:	48 89 df             	mov    %rbx,%rdi
    600d:	e8 2e de ff ff       	callq  3e40 <_Unwind_Resume@plt>
    6012:	0f 0b                	ud2    
    6014:	66 2e 0f 1f 84 00 00 	nopw   %cs:0x0(%rax,%rax,1)
    601b:	00 00 00 
    601e:	66 90                	xchg   %ax,%ax

0000000000006020 <_ZN72_$LT$std..io..buffered..BufWriter$LT$W$GT$$u20$as$u20$std..io..Write$GT$5write17hec1d7af34c2fa4bcE>:
    6020:	41 57                	push   %r15
    6022:	41 56                	push   %r14
    6024:	41 54                	push   %r12
    6026:	53                   	push   %rbx
    6027:	48 83 ec 18          	sub    $0x18,%rsp
    602b:	49 89 cf             	mov    %rcx,%r15
    602e:	49 89 d4             	mov    %rdx,%r12
    6031:	48 89 f3             	mov    %rsi,%rbx
    6034:	49 89 fe             	mov    %rdi,%r14
    6037:	48 8b 4e 10          	mov    0x10(%rsi),%rcx
    603b:	4c 01 f9             	add    %r15,%rcx
    603e:	48 8b 46 08          	mov    0x8(%rsi),%rax
    6042:	48 39 c1             	cmp    %rax,%rcx
    6045:	76 1c                	jbe    6063 <_ZN72_$LT$std..io..buffered..BufWriter$LT$W$GT$$u20$as$u20$std..io..Write$GT$5write17hec1d7af34c2fa4bcE+0x43>
    6047:	48 8d 7c 24 08       	lea    0x8(%rsp),%rdi
    604c:	48 89 de             	mov    %rbx,%rsi
    604f:	e8 dc fd ff ff       	callq  5e30 <_ZN46_$LT$std..io..buffered..BufWriter$LT$W$GT$$GT$9flush_buf17h511c83f468da2709E.llvm.4413060258141956733>
    6054:	80 7c 24 08 03       	cmpb   $0x3,0x8(%rsp)
    6059:	0f 85 86 00 00 00    	jne    60e5 <_ZN72_$LT$std..io..buffered..BufWriter$LT$W$GT$$u20$as$u20$std..io..Write$GT$5write17hec1d7af34c2fa4bcE+0xc5>
    605f:	48 8b 43 08          	mov    0x8(%rbx),%rax
    6063:	4c 39 f8             	cmp    %r15,%rax
    6066:	76 43                	jbe    60ab <_ZN72_$LT$std..io..buffered..BufWriter$LT$W$GT$$u20$as$u20$std..io..Write$GT$5write17hec1d7af34c2fa4bcE+0x8b>
    6068:	48 8b 73 10          	mov    0x10(%rbx),%rsi
    606c:	b9 01 00 00 00       	mov    $0x1,%ecx
    6071:	48 89 df             	mov    %rbx,%rdi
    6074:	4c 89 fa             	mov    %r15,%rdx
    6077:	e8 94 4c 00 00       	callq  ad10 <_ZN49_$LT$alloc..raw_vec..RawVec$LT$T$C$$u20$A$GT$$GT$16reserve_internal17ha2034e31ba44a768E.llvm.16155146218056170088>
    607c:	3c 02                	cmp    $0x2,%al
    607e:	0f 85 ba 00 00 00    	jne    613e <_ZN72_$LT$std..io..buffered..BufWriter$LT$W$GT$$u20$as$u20$std..io..Write$GT$5write17hec1d7af34c2fa4bcE+0x11e>
    6084:	48 8b 7b 10          	mov    0x10(%rbx),%rdi
    6088:	4a 8d 04 3f          	lea    (%rdi,%r15,1),%rax
    608c:	48 89 43 10          	mov    %rax,0x10(%rbx)
    6090:	48 03 3b             	add    (%rbx),%rdi
    6093:	4c 89 e6             	mov    %r12,%rsi
    6096:	4c 89 fa             	mov    %r15,%rdx
    6099:	e8 c2 db ff ff       	callq  3c60 <memcpy@plt>
    609e:	4d 89 7e 08          	mov    %r15,0x8(%r14)
    60a2:	49 c7 06 00 00 00 00 	movq   $0x0,(%r14)
    60a9:	eb 76                	jmp    6121 <_ZN72_$LT$std..io..buffered..BufWriter$LT$W$GT$$u20$as$u20$std..io..Write$GT$5write17hec1d7af34c2fa4bcE+0x101>
    60ab:	c6 43 19 01          	movb   $0x1,0x19(%rbx)
    60af:	8a 43 18             	mov    0x18(%rbx),%al
    60b2:	3c 01                	cmp    $0x1,%al
    60b4:	74 42                	je     60f8 <_ZN72_$LT$std..io..buffered..BufWriter$LT$W$GT$$u20$as$u20$std..io..Write$GT$5write17hec1d7af34c2fa4bcE+0xd8>
    60b6:	3c 02                	cmp    $0x2,%al
    60b8:	74 76                	je     6130 <_ZN72_$LT$std..io..buffered..BufWriter$LT$W$GT$$u20$as$u20$std..io..Write$GT$5write17hec1d7af34c2fa4bcE+0x110>
    60ba:	4d 85 ff             	test   %r15,%r15
    60bd:	48 ba ff ff ff ff ff 	movabs $0x7fffffffffffffff,%rdx
    60c4:	ff ff 7f 
    60c7:	49 0f 49 d7          	cmovns %r15,%rdx
    60cb:	bf 01 00 00 00       	mov    $0x1,%edi
    60d0:	4c 89 e6             	mov    %r12,%rsi
    60d3:	e8 48 d9 ff ff       	callq  3a20 <write@plt>
    60d8:	48 83 f8 ff          	cmp    $0xffffffffffffffff,%rax
    60dc:	74 1e                	je     60fc <_ZN72_$LT$std..io..buffered..BufWriter$LT$W$GT$$u20$as$u20$std..io..Write$GT$5write17hec1d7af34c2fa4bcE+0xdc>
    60de:	31 c9                	xor    %ecx,%ecx
    60e0:	49 89 c7             	mov    %rax,%r15
    60e3:	eb 31                	jmp    6116 <_ZN72_$LT$std..io..buffered..BufWriter$LT$W$GT$$u20$as$u20$std..io..Write$GT$5write17hec1d7af34c2fa4bcE+0xf6>
    60e5:	0f 10 44 24 08       	movups 0x8(%rsp),%xmm0
    60ea:	41 0f 11 46 08       	movups %xmm0,0x8(%r14)
    60ef:	49 c7 06 01 00 00 00 	movq   $0x1,(%r14)
    60f6:	eb 29                	jmp    6121 <_ZN72_$LT$std..io..buffered..BufWriter$LT$W$GT$$u20$as$u20$std..io..Write$GT$5write17hec1d7af34c2fa4bcE+0x101>
    60f8:	31 c9                	xor    %ecx,%ecx
    60fa:	eb 1a                	jmp    6116 <_ZN72_$LT$std..io..buffered..BufWriter$LT$W$GT$$u20$as$u20$std..io..Write$GT$5write17hec1d7af34c2fa4bcE+0xf6>
    60fc:	e8 bf d8 ff ff       	callq  39c0 <__errno_location@plt>
    6101:	8b 00                	mov    (%rax),%eax
    6103:	48 89 c2             	mov    %rax,%rdx
    6106:	48 c1 e2 20          	shl    $0x20,%rdx
    610a:	31 c9                	xor    %ecx,%ecx
    610c:	83 f8 09             	cmp    $0x9,%eax
    610f:	0f 95 c1             	setne  %cl
    6112:	4c 0f 45 fa          	cmovne %rdx,%r15
    6116:	c6 43 19 00          	movb   $0x0,0x19(%rbx)
    611a:	49 89 0e             	mov    %rcx,(%r14)
    611d:	4d 89 7e 08          	mov    %r15,0x8(%r14)
    6121:	4c 89 f0             	mov    %r14,%rax
    6124:	48 83 c4 18          	add    $0x18,%rsp
    6128:	5b                   	pop    %rbx
    6129:	41 5c                	pop    %r12
    612b:	41 5e                	pop    %r14
    612d:	41 5f                	pop    %r15
    612f:	c3                   	retq   
    6130:	48 8d 3d 09 eb 22 00 	lea    0x22eb09(%rip),%rdi        # 234c40 <anon.476eb5c597866c46477165e1fe069f35.2.llvm.4413060258141956733>
    6137:	e8 54 0e 02 00       	callq  26f90 <_ZN4core9panicking5panic17ha7de372c9886ba85E>
    613c:	0f 0b                	ud2    
    613e:	a8 01                	test   $0x1,%al
    6140:	75 07                	jne    6149 <_ZN72_$LT$std..io..buffered..BufWriter$LT$W$GT$$u20$as$u20$std..io..Write$GT$5write17hec1d7af34c2fa4bcE+0x129>
    6142:	e8 d9 b7 01 00       	callq  21920 <_ZN5alloc7raw_vec17capacity_overflow17ha447f3f07724bc99E>
    6147:	0f 0b                	ud2    
    6149:	48 8d 3d 60 ef 22 00 	lea    0x22ef60(%rip),%rdi        # 2350b0 <anon.238564c5f880854ddf42136e3ad0cdc1.5.llvm.16155146218056170088>
    6150:	e8 3b 0e 02 00       	callq  26f90 <_ZN4core9panicking5panic17ha7de372c9886ba85E>
    6155:	0f 0b                	ud2    
    6157:	66 0f 1f 84 00 00 00 	nopw   0x0(%rax,%rax,1)
    615e:	00 00 

0000000000006160 <_ZN79_$LT$std..io..buffered..BufWriter$LT$W$GT$$u20$as$u20$core..ops..drop..Drop$GT$4drop17h1894244e4a6e7befE>:
    6160:	41 56                	push   %r14
    6162:	53                   	push   %rbx
    6163:	48 83 ec 18          	sub    $0x18,%rsp
    6167:	80 7f 18 02          	cmpb   $0x2,0x18(%rdi)
    616b:	74 5c                	je     61c9 <_ZN79_$LT$std..io..buffered..BufWriter$LT$W$GT$$u20$as$u20$core..ops..drop..Drop$GT$4drop17h1894244e4a6e7befE+0x69>
    616d:	48 89 f8             	mov    %rdi,%rax
    6170:	80 7f 19 00          	cmpb   $0x0,0x19(%rdi)
    6174:	75 53                	jne    61c9 <_ZN79_$LT$std..io..buffered..BufWriter$LT$W$GT$$u20$as$u20$core..ops..drop..Drop$GT$4drop17h1894244e4a6e7befE+0x69>
    6176:	48 8d 7c 24 08       	lea    0x8(%rsp),%rdi
    617b:	48 89 c6             	mov    %rax,%rsi
    617e:	e8 ad fc ff ff       	callq  5e30 <_ZN46_$LT$std..io..buffered..BufWriter$LT$W$GT$$GT$9flush_buf17h511c83f468da2709E.llvm.4413060258141956733>
    6183:	31 c0                	xor    %eax,%eax
    6185:	84 c0                	test   %al,%al
    6187:	75 07                	jne    6190 <_ZN79_$LT$std..io..buffered..BufWriter$LT$W$GT$$u20$as$u20$core..ops..drop..Drop$GT$4drop17h1894244e4a6e7befE+0x30>
    6189:	80 7c 24 08 02       	cmpb   $0x2,0x8(%rsp)
    618e:	75 39                	jne    61c9 <_ZN79_$LT$std..io..buffered..BufWriter$LT$W$GT$$u20$as$u20$core..ops..drop..Drop$GT$4drop17h1894244e4a6e7befE+0x69>
    6190:	48 8b 5c 24 10       	mov    0x10(%rsp),%rbx
    6195:	48 8b 3b             	mov    (%rbx),%rdi
    6198:	48 8b 43 08          	mov    0x8(%rbx),%rax
    619c:	ff 10                	callq  *(%rax)
    619e:	48 8b 43 08          	mov    0x8(%rbx),%rax
    61a2:	48 8b 70 08          	mov    0x8(%rax),%rsi
    61a6:	48 85 f6             	test   %rsi,%rsi
    61a9:	74 0c                	je     61b7 <_ZN79_$LT$std..io..buffered..BufWriter$LT$W$GT$$u20$as$u20$core..ops..drop..Drop$GT$4drop17h1894244e4a6e7befE+0x57>
    61ab:	48 8b 3b             	mov    (%rbx),%rdi
    61ae:	48 8b 50 10          	mov    0x10(%rax),%rdx
    61b2:	e8 89 f4 ff ff       	callq  5640 <__rust_dealloc>
    61b7:	be 18 00 00 00       	mov    $0x18,%esi
    61bc:	ba 08 00 00 00       	mov    $0x8,%edx
    61c1:	48 89 df             	mov    %rbx,%rdi
    61c4:	e8 77 f4 ff ff       	callq  5640 <__rust_dealloc>
    61c9:	48 83 c4 18          	add    $0x18,%rsp
    61cd:	5b                   	pop    %rbx
    61ce:	41 5e                	pop    %r14
    61d0:	c3                   	retq   
    61d1:	49 89 c6             	mov    %rax,%r14
    61d4:	48 8b 3b             	mov    (%rbx),%rdi
    61d7:	48 8b 73 08          	mov    0x8(%rbx),%rsi
    61db:	e8 a0 f8 ff ff       	callq  5a80 <_ZN5alloc5alloc8box_free17ha51a6fc3cce93b49E.llvm.4413060258141956733>
    61e0:	48 89 df             	mov    %rbx,%rdi
    61e3:	e8 68 f8 ff ff       	callq  5a50 <_ZN5alloc5alloc8box_free17h2ad8dc8a77c6f592E>
    61e8:	4c 89 f7             	mov    %r14,%rdi
    61eb:	e8 50 dc ff ff       	callq  3e40 <_Unwind_Resume@plt>
    61f0:	0f 0b                	ud2    
    61f2:	66 2e 0f 1f 84 00 00 	nopw   %cs:0x0(%rax,%rax,1)
    61f9:	00 00 00 
    61fc:	0f 1f 40 00          	nopl   0x0(%rax)

0000000000006200 <_ZN73_$LT$std..io..buffered..LineWriter$LT$W$GT$$u20$as$u20$std..io..Write$GT$5write17hff5731382385c295E>:
    6200:	55                   	push   %rbp
    6201:	41 57                	push   %r15
    6203:	41 56                	push   %r14
    6205:	41 55                	push   %r13
    6207:	41 54                	push   %r12
    6209:	53                   	push   %rbx
    620a:	48 83 ec 58          	sub    $0x58,%rsp
    620e:	49 89 cc             	mov    %rcx,%r12
    6211:	49 89 d7             	mov    %rdx,%r15
    6214:	48 89 f3             	mov    %rsi,%rbx
    6217:	49 89 fe             	mov    %rdi,%r14
    621a:	80 7e 20 00          	cmpb   $0x0,0x20(%rsi)
    621e:	74 20                	je     6240 <_ZN73_$LT$std..io..buffered..LineWriter$LT$W$GT$$u20$as$u20$std..io..Write$GT$5write17hff5731382385c295E+0x40>
    6220:	48 89 e7             	mov    %rsp,%rdi
    6223:	48 89 de             	mov    %rbx,%rsi
    6226:	e8 05 fc ff ff       	callq  5e30 <_ZN46_$LT$std..io..buffered..BufWriter$LT$W$GT$$GT$9flush_buf17h511c83f468da2709E.llvm.4413060258141956733>
    622b:	8a 04 24             	mov    (%rsp),%al
    622e:	3c 03                	cmp    $0x3,%al
    6230:	75 76                	jne    62a8 <_ZN73_$LT$std..io..buffered..LineWriter$LT$W$GT$$u20$as$u20$std..io..Write$GT$5write17hff5731382385c295E+0xa8>
    6232:	80 7b 18 02          	cmpb   $0x2,0x18(%rbx)
    6236:	0f 84 f5 01 00 00    	je     6431 <_ZN73_$LT$std..io..buffered..LineWriter$LT$W$GT$$u20$as$u20$std..io..Write$GT$5write17hff5731382385c295E+0x231>
    623c:	c6 43 20 00          	movb   $0x0,0x20(%rbx)
    6240:	4d 85 e4             	test   %r12,%r12
    6243:	74 50                	je     6295 <_ZN73_$LT$std..io..buffered..LineWriter$LT$W$GT$$u20$as$u20$std..io..Write$GT$5write17hff5731382385c295E+0x95>
    6245:	be 0a 00 00 00       	mov    $0xa,%esi
    624a:	4c 89 ff             	mov    %r15,%rdi
    624d:	4c 89 e2             	mov    %r12,%rdx
    6250:	e8 3b db ff ff       	callq  3d90 <memrchr@plt>
    6255:	48 85 c0             	test   %rax,%rax
    6258:	74 3b                	je     6295 <_ZN73_$LT$std..io..buffered..LineWriter$LT$W$GT$$u20$as$u20$std..io..Write$GT$5write17hff5731382385c295E+0x95>
    625a:	49 89 c5             	mov    %rax,%r13
    625d:	4d 29 fd             	sub    %r15,%r13
    6260:	49 83 c5 01          	add    $0x1,%r13
    6264:	4d 39 e5             	cmp    %r12,%r13
    6267:	0f 87 d2 01 00 00    	ja     643f <_ZN73_$LT$std..io..buffered..LineWriter$LT$W$GT$$u20$as$u20$std..io..Write$GT$5write17hff5731382385c295E+0x23f>
    626d:	48 89 e7             	mov    %rsp,%rdi
    6270:	48 89 de             	mov    %rbx,%rsi
    6273:	4c 89 fa             	mov    %r15,%rdx
    6276:	4c 89 e9             	mov    %r13,%rcx
    6279:	e8 a2 fd ff ff       	callq  6020 <_ZN72_$LT$std..io..buffered..BufWriter$LT$W$GT$$u20$as$u20$std..io..Write$GT$5write17hec1d7af34c2fa4bcE>
    627e:	48 83 3c 24 01       	cmpq   $0x1,(%rsp)
    6283:	0f 85 9e 00 00 00    	jne    6327 <_ZN73_$LT$std..io..buffered..LineWriter$LT$W$GT$$u20$as$u20$std..io..Write$GT$5write17hff5731382385c295E+0x127>
    6289:	0f 10 44 24 08       	movups 0x8(%rsp),%xmm0
    628e:	41 0f 11 46 08       	movups %xmm0,0x8(%r14)
    6293:	eb 79                	jmp    630e <_ZN73_$LT$std..io..buffered..LineWriter$LT$W$GT$$u20$as$u20$std..io..Write$GT$5write17hff5731382385c295E+0x10e>
    6295:	4c 89 f7             	mov    %r14,%rdi
    6298:	48 89 de             	mov    %rbx,%rsi
    629b:	4c 89 fa             	mov    %r15,%rdx
    629e:	4c 89 e1             	mov    %r12,%rcx
    62a1:	e8 7a fd ff ff       	callq  6020 <_ZN72_$LT$std..io..buffered..BufWriter$LT$W$GT$$u20$as$u20$std..io..Write$GT$5write17hec1d7af34c2fa4bcE>
    62a6:	eb 6d                	jmp    6315 <_ZN73_$LT$std..io..buffered..LineWriter$LT$W$GT$$u20$as$u20$std..io..Write$GT$5write17hff5731382385c295E+0x115>
    62a8:	48 8b 4c 24 01       	mov    0x1(%rsp),%rcx
    62ad:	48 8b 54 24 08       	mov    0x8(%rsp),%rdx
    62b2:	48 89 54 24 4f       	mov    %rdx,0x4f(%rsp)
    62b7:	48 89 4c 24 48       	mov    %rcx,0x48(%rsp)
    62bc:	48 8b 4c 24 48       	mov    0x48(%rsp),%rcx
    62c1:	48 8b 54 24 4f       	mov    0x4f(%rsp),%rdx
    62c6:	48 89 54 24 3f       	mov    %rdx,0x3f(%rsp)
    62cb:	48 89 4c 24 38       	mov    %rcx,0x38(%rsp)
    62d0:	48 8b 4c 24 38       	mov    0x38(%rsp),%rcx
    62d5:	48 8b 54 24 3f       	mov    0x3f(%rsp),%rdx
    62da:	48 89 54 24 2f       	mov    %rdx,0x2f(%rsp)
    62df:	48 89 4c 24 28       	mov    %rcx,0x28(%rsp)
    62e4:	48 8b 4c 24 28       	mov    0x28(%rsp),%rcx
    62e9:	48 8b 54 24 2f       	mov    0x2f(%rsp),%rdx
    62ee:	48 89 54 24 1f       	mov    %rdx,0x1f(%rsp)
    62f3:	48 89 4c 24 18       	mov    %rcx,0x18(%rsp)
    62f8:	41 88 46 08          	mov    %al,0x8(%r14)
    62fc:	48 8b 44 24 18       	mov    0x18(%rsp),%rax
    6301:	48 8b 4c 24 1f       	mov    0x1f(%rsp),%rcx
    6306:	49 89 4e 10          	mov    %rcx,0x10(%r14)
    630a:	49 89 46 09          	mov    %rax,0x9(%r14)
    630e:	49 c7 06 01 00 00 00 	movq   $0x1,(%r14)
    6315:	4c 89 f0             	mov    %r14,%rax
    6318:	48 83 c4 58          	add    $0x58,%rsp
    631c:	5b                   	pop    %rbx
    631d:	41 5c                	pop    %r12
    631f:	41 5d                	pop    %r13
    6321:	41 5e                	pop    %r14
    6323:	41 5f                	pop    %r15
    6325:	5d                   	pop    %rbp
    6326:	c3                   	retq   
    6327:	48 8b 6c 24 08       	mov    0x8(%rsp),%rbp
    632c:	c6 43 20 01          	movb   $0x1,0x20(%rbx)
    6330:	48 89 e7             	mov    %rsp,%rdi
    6333:	48 89 de             	mov    %rbx,%rsi
    6336:	e8 f5 fa ff ff       	callq  5e30 <_ZN46_$LT$std..io..buffered..BufWriter$LT$W$GT$$GT$9flush_buf17h511c83f468da2709E.llvm.4413060258141956733>
    633b:	8a 04 24             	mov    (%rsp),%al
    633e:	3c 03                	cmp    $0x3,%al
    6340:	0f 85 89 00 00 00    	jne    63cf <_ZN73_$LT$std..io..buffered..LineWriter$LT$W$GT$$u20$as$u20$std..io..Write$GT$5write17hff5731382385c295E+0x1cf>
    6346:	80 7b 18 02          	cmpb   $0x2,0x18(%rbx)
    634a:	0f 84 e1 00 00 00    	je     6431 <_ZN73_$LT$std..io..buffered..LineWriter$LT$W$GT$$u20$as$u20$std..io..Write$GT$5write17hff5731382385c295E+0x231>
    6350:	c6 43 20 00          	movb   $0x0,0x20(%rbx)
    6354:	4c 39 ed             	cmp    %r13,%rbp
    6357:	0f 85 af 00 00 00    	jne    640c <_ZN73_$LT$std..io..buffered..LineWriter$LT$W$GT$$u20$as$u20$std..io..Write$GT$5write17hff5731382385c295E+0x20c>
    635d:	4d 01 ef             	add    %r13,%r15
    6360:	4d 29 ec             	sub    %r13,%r12
    6363:	48 89 e7             	mov    %rsp,%rdi
    6366:	48 89 de             	mov    %rbx,%rsi
    6369:	4c 89 fa             	mov    %r15,%rdx
    636c:	4c 89 e1             	mov    %r12,%rcx
    636f:	e8 ac fc ff ff       	callq  6020 <_ZN72_$LT$std..io..buffered..BufWriter$LT$W$GT$$u20$as$u20$std..io..Write$GT$5write17hec1d7af34c2fa4bcE>
    6374:	48 83 3c 24 01       	cmpq   $0x1,(%rsp)
    6379:	0f 85 9d 00 00 00    	jne    641c <_ZN73_$LT$std..io..buffered..LineWriter$LT$W$GT$$u20$as$u20$std..io..Write$GT$5write17hff5731382385c295E+0x21c>
    637f:	4d 89 6e 08          	mov    %r13,0x8(%r14)
    6383:	49 c7 06 00 00 00 00 	movq   $0x0,(%r14)
    638a:	80 7c 24 08 02       	cmpb   $0x2,0x8(%rsp)
    638f:	72 84                	jb     6315 <_ZN73_$LT$std..io..buffered..LineWriter$LT$W$GT$$u20$as$u20$std..io..Write$GT$5write17hff5731382385c295E+0x115>
    6391:	48 8b 5c 24 10       	mov    0x10(%rsp),%rbx
    6396:	48 8b 3b             	mov    (%rbx),%rdi
    6399:	48 8b 43 08          	mov    0x8(%rbx),%rax
    639d:	ff 10                	callq  *(%rax)
    639f:	48 8b 43 08          	mov    0x8(%rbx),%rax
    63a3:	48 8b 70 08          	mov    0x8(%rax),%rsi
    63a7:	48 85 f6             	test   %rsi,%rsi
    63aa:	74 0c                	je     63b8 <_ZN73_$LT$std..io..buffered..LineWriter$LT$W$GT$$u20$as$u20$std..io..Write$GT$5write17hff5731382385c295E+0x1b8>
    63ac:	48 8b 3b             	mov    (%rbx),%rdi
    63af:	48 8b 50 10          	mov    0x10(%rax),%rdx
    63b3:	e8 88 f2 ff ff       	callq  5640 <__rust_dealloc>
    63b8:	be 18 00 00 00       	mov    $0x18,%esi
    63bd:	ba 08 00 00 00       	mov    $0x8,%edx
    63c2:	48 89 df             	mov    %rbx,%rdi
    63c5:	e8 76 f2 ff ff       	callq  5640 <__rust_dealloc>
    63ca:	e9 46 ff ff ff       	jmpq   6315 <_ZN73_$LT$std..io..buffered..LineWriter$LT$W$GT$$u20$as$u20$std..io..Write$GT$5write17hff5731382385c295E+0x115>
    63cf:	3c 02                	cmp    $0x2,%al
    63d1:	72 39                	jb     640c <_ZN73_$LT$std..io..buffered..LineWriter$LT$W$GT$$u20$as$u20$std..io..Write$GT$5write17hff5731382385c295E+0x20c>
    63d3:	48 8b 5c 24 08       	mov    0x8(%rsp),%rbx
    63d8:	48 8b 3b             	mov    (%rbx),%rdi
    63db:	48 8b 43 08          	mov    0x8(%rbx),%rax
    63df:	ff 10                	callq  *(%rax)
    63e1:	48 8b 43 08          	mov    0x8(%rbx),%rax
    63e5:	48 8b 70 08          	mov    0x8(%rax),%rsi
    63e9:	48 85 f6             	test   %rsi,%rsi
    63ec:	74 0c                	je     63fa <_ZN73_$LT$std..io..buffered..LineWriter$LT$W$GT$$u20$as$u20$std..io..Write$GT$5write17hff5731382385c295E+0x1fa>
    63ee:	48 8b 3b             	mov    (%rbx),%rdi
    63f1:	48 8b 50 10          	mov    0x10(%rax),%rdx
    63f5:	e8 46 f2 ff ff       	callq  5640 <__rust_dealloc>
    63fa:	be 18 00 00 00       	mov    $0x18,%esi
    63ff:	ba 08 00 00 00       	mov    $0x8,%edx
    6404:	48 89 df             	mov    %rbx,%rdi
    6407:	e8 34 f2 ff ff       	callq  5640 <__rust_dealloc>
    640c:	49 89 6e 08          	mov    %rbp,0x8(%r14)
    6410:	49 c7 06 00 00 00 00 	movq   $0x0,(%r14)
    6417:	e9 f9 fe ff ff       	jmpq   6315 <_ZN73_$LT$std..io..buffered..LineWriter$LT$W$GT$$u20$as$u20$std..io..Write$GT$5write17hff5731382385c295E+0x115>
    641c:	4c 03 6c 24 08       	add    0x8(%rsp),%r13
    6421:	4d 89 6e 08          	mov    %r13,0x8(%r14)
    6425:	49 c7 06 00 00 00 00 	movq   $0x0,(%r14)
    642c:	e9 e4 fe ff ff       	jmpq   6315 <_ZN73_$LT$std..io..buffered..LineWriter$LT$W$GT$$u20$as$u20$std..io..Write$GT$5write17hff5731382385c295E+0x115>
    6431:	48 8d 3d 08 e8 22 00 	lea    0x22e808(%rip),%rdi        # 234c40 <anon.476eb5c597866c46477165e1fe069f35.2.llvm.4413060258141956733>
    6438:	e8 53 0b 02 00       	callq  26f90 <_ZN4core9panicking5panic17ha7de372c9886ba85E>
    643d:	0f 0b                	ud2    
    643f:	4c 89 ef             	mov    %r13,%rdi
    6442:	4c 89 e6             	mov    %r12,%rsi
    6445:	e8 a6 c6 01 00       	callq  22af0 <_ZN4core5slice20slice_index_len_fail17h6eabc2b64f187500E>
    644a:	0f 0b                	ud2    
    644c:	eb 00                	jmp    644e <_ZN73_$LT$std..io..buffered..LineWriter$LT$W$GT$$u20$as$u20$std..io..Write$GT$5write17hff5731382385c295E+0x24e>
    644e:	49 89 c6             	mov    %rax,%r14
    6451:	48 8b 3b             	mov    (%rbx),%rdi
    6454:	48 8b 73 08          	mov    0x8(%rbx),%rsi
    6458:	e8 23 f6 ff ff       	callq  5a80 <_ZN5alloc5alloc8box_free17ha51a6fc3cce93b49E.llvm.4413060258141956733>
    645d:	48 89 df             	mov    %rbx,%rdi
    6460:	e8 eb f5 ff ff       	callq  5a50 <_ZN5alloc5alloc8box_free17h2ad8dc8a77c6f592E>
    6465:	4c 89 f7             	mov    %r14,%rdi
    6468:	e8 d3 d9 ff ff       	callq  3e40 <_Unwind_Resume@plt>
    646d:	0f 0b                	ud2    
    646f:	90                   	nop

0000000000006470 <_ZN41_$LT$std..sync..mutex..Mutex$LT$T$GT$$GT$3new17h489989f1fd4bbd10E>:
    6470:	41 57                	push   %r15
    6472:	41 56                	push   %r14
    6474:	53                   	push   %rbx
    6475:	48 83 ec 10          	sub    $0x10,%rsp
    6479:	49 89 fe             	mov    %rdi,%r14
    647c:	bf 28 00 00 00       	mov    $0x28,%edi
    6481:	be 08 00 00 00       	mov    $0x8,%esi
    6486:	e8 95 f1 ff ff       	callq  5620 <__rust_alloc>
    648b:	48 85 c0             	test   %rax,%rax
    648e:	74 6e                	je     64fe <_ZN41_$LT$std..sync..mutex..Mutex$LT$T$GT$$GT$3new17h489989f1fd4bbd10E+0x8e>
    6490:	48 89 c3             	mov    %rax,%rbx
    6493:	0f 57 c0             	xorps  %xmm0,%xmm0
    6496:	0f 11 40 10          	movups %xmm0,0x10(%rax)
    649a:	0f 11 00             	movups %xmm0,(%rax)
    649d:	48 c7 40 20 00 00 00 	movq   $0x0,0x20(%rax)
    64a4:	00 
    64a5:	4c 8d 7c 24 08       	lea    0x8(%rsp),%r15
    64aa:	4c 89 ff             	mov    %r15,%rdi
    64ad:	e8 1e d6 ff ff       	callq  3ad0 <pthread_mutexattr_init@plt>
    64b2:	31 f6                	xor    %esi,%esi
    64b4:	4c 89 ff             	mov    %r15,%rdi
    64b7:	e8 e4 d7 ff ff       	callq  3ca0 <pthread_mutexattr_settype@plt>
    64bc:	48 89 df             	mov    %rbx,%rdi
    64bf:	4c 89 fe             	mov    %r15,%rsi
    64c2:	e8 89 d9 ff ff       	callq  3e50 <pthread_mutex_init@plt>
    64c7:	4c 89 ff             	mov    %r15,%rdi
    64ca:	e8 b1 d5 ff ff       	callq  3a80 <pthread_mutexattr_destroy@plt>
    64cf:	49 89 1e             	mov    %rbx,(%r14)
    64d2:	41 c6 46 08 00       	movb   $0x0,0x8(%r14)
    64d7:	8a 44 24 07          	mov    0x7(%rsp),%al
    64db:	41 88 46 0f          	mov    %al,0xf(%r14)
    64df:	0f b7 44 24 05       	movzwl 0x5(%rsp),%eax
    64e4:	66 41 89 46 0d       	mov    %ax,0xd(%r14)
    64e9:	8b 44 24 01          	mov    0x1(%rsp),%eax
    64ed:	41 89 46 09          	mov    %eax,0x9(%r14)
    64f1:	4c 89 f0             	mov    %r14,%rax
    64f4:	48 83 c4 10          	add    $0x10,%rsp
    64f8:	5b                   	pop    %rbx
    64f9:	41 5e                	pop    %r14
    64fb:	41 5f                	pop    %r15
    64fd:	c3                   	retq   
    64fe:	bf 28 00 00 00       	mov    $0x28,%edi
    6503:	be 08 00 00 00       	mov    $0x8,%esi
    6508:	e8 23 b4 01 00       	callq  21930 <_ZN5alloc5alloc18handle_alloc_error17hb8f8a0e42d4fb5daE>
    650d:	0f 0b                	ud2    
    650f:	90                   	nop

0000000000006510 <_ZN3std10sys_common11at_exit_imp7cleanup17h59329c0e0a6769cdE>:
    6510:	55                   	push   %rbp
    6511:	41 57                	push   %r15
    6513:	41 56                	push   %r14
    6515:	41 55                	push   %r13
    6517:	41 54                	push   %r12
    6519:	53                   	push   %rbx
    651a:	48 83 ec 38          	sub    $0x38,%rsp
    651e:	41 bc 01 00 00 00    	mov    $0x1,%r12d
    6524:	4c 8d 35 9d 0b 23 00 	lea    0x230b9d(%rip),%r14        # 2370c8 <_ZN3std10sys_common11at_exit_imp4LOCK17h8adf5e33ca6386bbE.llvm.4413060258141956733>
    652b:	bb 01 00 00 00       	mov    $0x1,%ebx
    6530:	49 83 fc 0a          	cmp    $0xa,%r12
    6534:	48 83 d3 00          	adc    $0x0,%rbx
    6538:	31 ed                	xor    %ebp,%ebp
    653a:	49 83 fc 0a          	cmp    $0xa,%r12
    653e:	40 0f 94 c5          	sete   %bpl
    6542:	4c 89 f7             	mov    %r14,%rdi
    6545:	e8 16 d9 ff ff       	callq  3e60 <pthread_mutex_lock@plt>
    654a:	4c 8b 2d 9f 0b 23 00 	mov    0x230b9f(%rip),%r13        # 2370f0 <_ZN3std10sys_common11at_exit_imp5QUEUE17he35c860839a5fb40E.llvm.4413060258141956733>
    6551:	48 89 2d 98 0b 23 00 	mov    %rbp,0x230b98(%rip)        # 2370f0 <_ZN3std10sys_common11at_exit_imp5QUEUE17he35c860839a5fb40E.llvm.4413060258141956733>
    6558:	4c 89 f7             	mov    %r14,%rdi
    655b:	e8 30 d7 ff ff       	callq  3c90 <pthread_mutex_unlock@plt>
    6560:	4d 85 ed             	test   %r13,%r13
    6563:	0f 84 ba 00 00 00    	je     6623 <_ZN3std10sys_common11at_exit_imp7cleanup17h59329c0e0a6769cdE+0x113>
    6569:	48 89 5c 24 30       	mov    %rbx,0x30(%rsp)
    656e:	49 83 fd 01          	cmp    $0x1,%r13
    6572:	0f 84 c7 00 00 00    	je     663f <_ZN3std10sys_common11at_exit_imp7cleanup17h59329c0e0a6769cdE+0x12f>
    6578:	41 0f 10 45 00       	movups 0x0(%r13),%xmm0
    657d:	0f 29 04 24          	movaps %xmm0,(%rsp)
    6581:	4d 8b 75 10          	mov    0x10(%r13),%r14
    6585:	4c 89 74 24 10       	mov    %r14,0x10(%rsp)
    658a:	48 8b 1c 24          	mov    (%rsp),%rbx
    658e:	48 8b 44 24 08       	mov    0x8(%rsp),%rax
    6593:	49 c1 e6 04          	shl    $0x4,%r14
    6597:	4a 8d 0c 33          	lea    (%rbx,%r14,1),%rcx
    659b:	48 89 1c 24          	mov    %rbx,(%rsp)
    659f:	48 89 44 24 28       	mov    %rax,0x28(%rsp)
    65a4:	48 89 44 24 08       	mov    %rax,0x8(%rsp)
    65a9:	48 89 5c 24 10       	mov    %rbx,0x10(%rsp)
    65ae:	48 89 4c 24 20       	mov    %rcx,0x20(%rsp)
    65b3:	48 89 4c 24 18       	mov    %rcx,0x18(%rsp)
    65b8:	49 f7 de             	neg    %r14
    65bb:	31 ed                	xor    %ebp,%ebp
    65bd:	49 89 df             	mov    %rbx,%r15
    65c0:	49 39 ee             	cmp    %rbp,%r14
    65c3:	74 1b                	je     65e0 <_ZN3std10sys_common11at_exit_imp7cleanup17h59329c0e0a6769cdE+0xd0>
    65c5:	49 8b 3f             	mov    (%r15),%rdi
    65c8:	49 8b 47 08          	mov    0x8(%r15),%rax
    65cc:	4d 8d 7f 10          	lea    0x10(%r15),%r15
    65d0:	48 83 c5 f0          	add    $0xfffffffffffffff0,%rbp
    65d4:	ff 50 18             	callq  *0x18(%rax)
    65d7:	eb e7                	jmp    65c0 <_ZN3std10sys_common11at_exit_imp7cleanup17h59329c0e0a6769cdE+0xb0>
    65d9:	0f 1f 80 00 00 00 00 	nopl   0x0(%rax)
    65e0:	48 8b 44 24 20       	mov    0x20(%rsp),%rax
    65e5:	48 89 44 24 10       	mov    %rax,0x10(%rsp)
    65ea:	48 8b 74 24 28       	mov    0x28(%rsp),%rsi
    65ef:	48 85 f6             	test   %rsi,%rsi
    65f2:	74 11                	je     6605 <_ZN3std10sys_common11at_exit_imp7cleanup17h59329c0e0a6769cdE+0xf5>
    65f4:	48 c1 e6 04          	shl    $0x4,%rsi
    65f8:	ba 08 00 00 00       	mov    $0x8,%edx
    65fd:	48 89 df             	mov    %rbx,%rdi
    6600:	e8 3b f0 ff ff       	callq  5640 <__rust_dealloc>
    6605:	be 18 00 00 00       	mov    $0x18,%esi
    660a:	ba 08 00 00 00       	mov    $0x8,%edx
    660f:	4c 89 ef             	mov    %r13,%rdi
    6612:	e8 29 f0 ff ff       	callq  5640 <__rust_dealloc>
    6617:	4c 8d 35 aa 0a 23 00 	lea    0x230aaa(%rip),%r14        # 2370c8 <_ZN3std10sys_common11at_exit_imp4LOCK17h8adf5e33ca6386bbE.llvm.4413060258141956733>
    661e:	48 8b 5c 24 30       	mov    0x30(%rsp),%rbx
    6623:	49 83 fc 0a          	cmp    $0xa,%r12
    6627:	49 89 dc             	mov    %rbx,%r12
    662a:	0f 82 00 ff ff ff    	jb     6530 <_ZN3std10sys_common11at_exit_imp7cleanup17h59329c0e0a6769cdE+0x20>
    6630:	48 83 c4 38          	add    $0x38,%rsp
    6634:	5b                   	pop    %rbx
    6635:	41 5c                	pop    %r12
    6637:	41 5d                	pop    %r13
    6639:	41 5e                	pop    %r14
    663b:	41 5f                	pop    %r15
    663d:	5d                   	pop    %rbp
    663e:	c3                   	retq   
    663f:	48 8d 3d da 12 02 00 	lea    0x212da(%rip),%rdi        # 27920 <_ZN4play6GLOBAL17h6391985a871b6f5eE+0x1e0>
    6646:	48 8d 15 1b e6 22 00 	lea    0x22e61b(%rip),%rdx        # 234c68 <anon.476eb5c597866c46477165e1fe069f35.2.llvm.4413060258141956733+0x28>
    664d:	be 1f 00 00 00       	mov    $0x1f,%esi
    6652:	e8 59 a8 00 00       	callq  10eb0 <_ZN3std9panicking11begin_panic17h3fab149413f14cb5E>
    6657:	0f 0b                	ud2    
    6659:	49 89 c6             	mov    %rax,%r14
    665c:	48 29 eb             	sub    %rbp,%rbx
    665f:	48 89 5c 24 10       	mov    %rbx,0x10(%rsp)
    6664:	48 89 e7             	mov    %rsp,%rdi
    6667:	e8 a4 f1 ff ff       	callq  5810 <_ZN4core3ptr13drop_in_place17hffed4d284ebc9478E>
    666c:	4c 89 ef             	mov    %r13,%rdi
    666f:	e8 dc f3 ff ff       	callq  5a50 <_ZN5alloc5alloc8box_free17h2ad8dc8a77c6f592E>
    6674:	4c 89 f7             	mov    %r14,%rdi
    6677:	e8 c4 d7 ff ff       	callq  3e40 <_Unwind_Resume@plt>
    667c:	0f 0b                	ud2    
    667e:	66 90                	xchg   %ax,%ax

0000000000006680 <_ZN3std10sys_common11at_exit_imp4push17h37efbec18eaedc58E>:
    6680:	41 57                	push   %r15
    6682:	41 56                	push   %r14
    6684:	41 54                	push   %r12
    6686:	53                   	push   %rbx
    6687:	48 83 ec 18          	sub    $0x18,%rsp
    668b:	49 89 f7             	mov    %rsi,%r15
    668e:	49 89 fe             	mov    %rdi,%r14
    6691:	4c 8d 25 30 0a 23 00 	lea    0x230a30(%rip),%r12        # 2370c8 <_ZN3std10sys_common11at_exit_imp4LOCK17h8adf5e33ca6386bbE.llvm.4413060258141956733>
    6698:	4c 89 e7             	mov    %r12,%rdi
    669b:	e8 c0 d7 ff ff       	callq  3e60 <pthread_mutex_lock@plt>
    66a0:	4c 89 24 24          	mov    %r12,(%rsp)
    66a4:	48 8b 1d 45 0a 23 00 	mov    0x230a45(%rip),%rbx        # 2370f0 <_ZN3std10sys_common11at_exit_imp5QUEUE17he35c860839a5fb40E.llvm.4413060258141956733>
    66ab:	48 85 db             	test   %rbx,%rbx
    66ae:	74 31                	je     66e1 <_ZN3std10sys_common11at_exit_imp4push17h37efbec18eaedc58E+0x61>
    66b0:	48 83 fb 01          	cmp    $0x1,%rbx
    66b4:	75 57                	jne    670d <_ZN3std10sys_common11at_exit_imp4push17h37efbec18eaedc58E+0x8d>
    66b6:	48 8d 3d 0b 0a 23 00 	lea    0x230a0b(%rip),%rdi        # 2370c8 <_ZN3std10sys_common11at_exit_imp4LOCK17h8adf5e33ca6386bbE.llvm.4413060258141956733>
    66bd:	e8 ce d5 ff ff       	callq  3c90 <pthread_mutex_unlock@plt>
    66c2:	4c 89 f7             	mov    %r14,%rdi
    66c5:	41 ff 17             	callq  *(%r15)
    66c8:	49 8b 77 08          	mov    0x8(%r15),%rsi
    66cc:	48 85 f6             	test   %rsi,%rsi
    66cf:	74 0c                	je     66dd <_ZN3std10sys_common11at_exit_imp4push17h37efbec18eaedc58E+0x5d>
    66d1:	49 8b 57 10          	mov    0x10(%r15),%rdx
    66d5:	4c 89 f7             	mov    %r14,%rdi
    66d8:	e8 63 ef ff ff       	callq  5640 <__rust_dealloc>
    66dd:	31 c9                	xor    %ecx,%ecx
    66df:	eb 74                	jmp    6755 <_ZN3std10sys_common11at_exit_imp4push17h37efbec18eaedc58E+0xd5>
    66e1:	bf 18 00 00 00       	mov    $0x18,%edi
    66e6:	be 08 00 00 00       	mov    $0x8,%esi
    66eb:	e8 30 ef ff ff       	callq  5620 <__rust_alloc>
    66f0:	48 85 c0             	test   %rax,%rax
    66f3:	74 6e                	je     6763 <_ZN3std10sys_common11at_exit_imp4push17h37efbec18eaedc58E+0xe3>
    66f5:	48 89 c3             	mov    %rax,%rbx
    66f8:	48 c7 00 08 00 00 00 	movq   $0x8,(%rax)
    66ff:	0f 57 c0             	xorps  %xmm0,%xmm0
    6702:	0f 11 40 08          	movups %xmm0,0x8(%rax)
    6706:	48 89 05 e3 09 23 00 	mov    %rax,0x2309e3(%rip)        # 2370f0 <_ZN3std10sys_common11at_exit_imp5QUEUE17he35c860839a5fb40E.llvm.4413060258141956733>
    670d:	4c 89 74 24 08       	mov    %r14,0x8(%rsp)
    6712:	4c 89 7c 24 10       	mov    %r15,0x10(%rsp)
    6717:	48 8b 73 10          	mov    0x10(%rbx),%rsi
    671b:	48 3b 73 08          	cmp    0x8(%rbx),%rsi
    671f:	75 15                	jne    6736 <_ZN3std10sys_common11at_exit_imp4push17h37efbec18eaedc58E+0xb6>
    6721:	ba 01 00 00 00       	mov    $0x1,%edx
    6726:	48 89 df             	mov    %rbx,%rdi
    6729:	e8 72 46 00 00       	callq  ada0 <_ZN49_$LT$alloc..raw_vec..RawVec$LT$T$C$$u20$A$GT$$GT$7reserve17h2baa9f41a5e8003aE>
    672e:	48 8b 73 10          	mov    0x10(%rbx),%rsi
    6732:	4c 8b 24 24          	mov    (%rsp),%r12
    6736:	48 8b 03             	mov    (%rbx),%rax
    6739:	48 c1 e6 04          	shl    $0x4,%rsi
    673d:	4c 89 34 30          	mov    %r14,(%rax,%rsi,1)
    6741:	4c 89 7c 30 08       	mov    %r15,0x8(%rax,%rsi,1)
    6746:	48 83 43 10 01       	addq   $0x1,0x10(%rbx)
    674b:	4c 89 e7             	mov    %r12,%rdi
    674e:	e8 3d d5 ff ff       	callq  3c90 <pthread_mutex_unlock@plt>
    6753:	b1 01                	mov    $0x1,%cl
    6755:	89 c8                	mov    %ecx,%eax
    6757:	48 83 c4 18          	add    $0x18,%rsp
    675b:	5b                   	pop    %rbx
    675c:	41 5c                	pop    %r12
    675e:	41 5e                	pop    %r14
    6760:	41 5f                	pop    %r15
    6762:	c3                   	retq   
    6763:	bf 18 00 00 00       	mov    $0x18,%edi
    6768:	be 08 00 00 00       	mov    $0x8,%esi
    676d:	e8 be b1 01 00       	callq  21930 <_ZN5alloc5alloc18handle_alloc_error17hb8f8a0e42d4fb5daE>
    6772:	0f 0b                	ud2    
    6774:	48 89 c3             	mov    %rax,%rbx
    6777:	48 8d 7c 24 08       	lea    0x8(%rsp),%rdi
    677c:	e8 9f ef ff ff       	callq  5720 <_ZN4core3ptr13drop_in_place17h93c4de1fe3f68dcbE.llvm.4413060258141956733>
    6781:	48 89 e7             	mov    %rsp,%rdi
    6784:	e8 f7 ef ff ff       	callq  5780 <_ZN4core3ptr13drop_in_place17hb8376cfde6acc3c5E.llvm.4413060258141956733>
    6789:	eb 13                	jmp    679e <_ZN3std10sys_common11at_exit_imp4push17h37efbec18eaedc58E+0x11e>
    678b:	48 89 c3             	mov    %rax,%rbx
    678e:	eb f1                	jmp    6781 <_ZN3std10sys_common11at_exit_imp4push17h37efbec18eaedc58E+0x101>
    6790:	48 89 c3             	mov    %rax,%rbx
    6793:	4c 89 f7             	mov    %r14,%rdi
    6796:	4c 89 fe             	mov    %r15,%rsi
    6799:	e8 c2 f2 ff ff       	callq  5a60 <_ZN5alloc5alloc8box_free17h74d69fd88824a794E>
    679e:	48 89 df             	mov    %rbx,%rdi
    67a1:	e8 9a d6 ff ff       	callq  3e40 <_Unwind_Resume@plt>
    67a6:	0f 0b                	ud2    
    67a8:	0f 1f 84 00 00 00 00 	nopl   0x0(%rax,%rax,1)
    67af:	00 

00000000000067b0 <_ZN3std2rt19lang_start_internal17h6bc80da8df1b84a6E>:
    67b0:	55                   	push   %rbp
    67b1:	41 57                	push   %r15
    67b3:	41 56                	push   %r14
    67b5:	53                   	push   %rbx
    67b6:	48 83 ec 78          	sub    $0x78,%rsp
    67ba:	49 89 ce             	mov    %rcx,%r14
    67bd:	49 89 d7             	mov    %rdx,%r15
    67c0:	48 89 7c 24 50       	mov    %rdi,0x50(%rsp)
    67c5:	48 89 74 24 58       	mov    %rsi,0x58(%rsp)
    67ca:	bf 0d 00 00 00       	mov    $0xd,%edi
    67cf:	be 01 00 00 00       	mov    $0x1,%esi
    67d4:	e8 67 d4 ff ff       	callq  3c40 <signal@plt>
    67d9:	48 83 f8 ff          	cmp    $0xffffffffffffffff,%rax
    67dd:	0f 84 cd 01 00 00    	je     69b0 <_ZN3std2rt19lang_start_internal17h6bc80da8df1b84a6E+0x200>
    67e3:	48 8d 7c 24 60       	lea    0x60(%rsp),%rdi
    67e8:	e8 e3 41 00 00       	callq  a9d0 <_ZN3std3sys4unix6thread5guard4init17h956e1d69ea62a926E>
    67ed:	e8 fe aa 00 00       	callq  112f0 <_ZN3std3sys4unix14stack_overflow3imp4init17hccefdec40ea4b16dE>
    67f2:	48 8d 35 46 11 02 00 	lea    0x21146(%rip),%rsi        # 2793f <_ZN4play6GLOBAL17h6391985a871b6f5eE+0x1ff>
    67f9:	48 8d 5c 24 10       	lea    0x10(%rsp),%rbx
    67fe:	ba 04 00 00 00       	mov    $0x4,%edx
    6803:	48 89 df             	mov    %rbx,%rdi
    6806:	e8 55 b1 01 00       	callq  21960 <_ZN5alloc3str56_$LT$impl$u20$alloc..borrow..ToOwned$u20$for$u20$str$GT$8to_owned17h5748dc6b51d3266bE>
    680b:	48 89 df             	mov    %rbx,%rdi
    680e:	e8 ed 29 00 00       	callq  9200 <_ZN3std6thread6Thread3new17ha6e9c5747918f07fE>
    6813:	48 8b 4c 24 70       	mov    0x70(%rsp),%rcx
    6818:	48 89 4c 24 40       	mov    %rcx,0x40(%rsp)
    681d:	0f 10 44 24 60       	movups 0x60(%rsp),%xmm0
    6822:	0f 29 44 24 30       	movaps %xmm0,0x30(%rsp)
    6827:	48 89 44 24 08       	mov    %rax,0x8(%rsp)
    682c:	48 8d 3d 4d e4 22 00 	lea    0x22e44d(%rip),%rdi        # 234c80 <anon.476eb5c597866c46477165e1fe069f35.19.llvm.4413060258141956733>
    6833:	e8 68 0c 00 00       	callq  74a0 <_ZN46_$LT$std..thread..local..LocalKey$LT$T$GT$$GT$4with17hf0ef56fc6e63da33E>
    6838:	48 8b 44 24 40       	mov    0x40(%rsp),%rax
    683d:	48 89 44 24 20       	mov    %rax,0x20(%rsp)
    6842:	0f 28 44 24 30       	movaps 0x30(%rsp),%xmm0
    6847:	0f 29 44 24 10       	movaps %xmm0,0x10(%rsp)
    684c:	48 8b 44 24 08       	mov    0x8(%rsp),%rax
    6851:	48 89 44 24 28       	mov    %rax,0x28(%rsp)
    6856:	48 8d 3d 23 e4 22 00 	lea    0x22e423(%rip),%rdi        # 234c80 <anon.476eb5c597866c46477165e1fe069f35.19.llvm.4413060258141956733>
    685d:	48 8d 74 24 10       	lea    0x10(%rsp),%rsi
    6862:	e8 49 0d 00 00       	callq  75b0 <_ZN46_$LT$std..thread..local..LocalKey$LT$T$GT$$GT$4with17hf3064ce7943eb28bE>
    6867:	48 8d 1d a2 09 23 00 	lea    0x2309a2(%rip),%rbx        # 237210 <_ZN3std3sys4unix4args3imp4LOCK17h0a204c5bb331dea7E.llvm.11598444384639663181>
    686e:	48 89 df             	mov    %rbx,%rdi
    6871:	e8 ea d5 ff ff       	callq  3e60 <pthread_mutex_lock@plt>
    6876:	4c 89 3d 83 09 23 00 	mov    %r15,0x230983(%rip)        # 237200 <_ZN3std3sys4unix4args3imp4ARGC17h935a8a6e5f434cbaE.llvm.11598444384639663181>
    687d:	4c 89 35 84 09 23 00 	mov    %r14,0x230984(%rip)        # 237208 <_ZN3std3sys4unix4args3imp4ARGV17hda8d9311c8fc5b1dE.llvm.11598444384639663181>
    6884:	48 89 df             	mov    %rbx,%rdi
    6887:	e8 04 d4 ff ff       	callq  3c90 <pthread_mutex_unlock@plt>
    688c:	48 c7 44 24 48 00 00 	movq   $0x0,0x48(%rsp)
    6893:	00 00 
    6895:	48 c7 44 24 08 00 00 	movq   $0x0,0x8(%rsp)
    689c:	00 00 
    689e:	48 8d 44 24 50       	lea    0x50(%rsp),%rax
    68a3:	48 89 44 24 30       	mov    %rax,0x30(%rsp)
    68a8:	48 8d 3d 01 a3 00 00 	lea    0xa301(%rip),%rdi        # 10bb0 <_ZN3std9panicking3try7do_call17h2b4c677308ab43e9E.llvm.3377372267209290068>
    68af:	48 8d 74 24 30       	lea    0x30(%rsp),%rsi
    68b4:	48 8d 54 24 48       	lea    0x48(%rsp),%rdx
    68b9:	4c 8d 74 24 08       	lea    0x8(%rsp),%r14
    68be:	4c 89 f1             	mov    %r14,%rcx
    68c1:	e8 9a 45 01 00       	callq  1ae60 <__rust_maybe_catch_panic>
    68c6:	85 c0                	test   %eax,%eax
    68c8:	74 25                	je     68ef <_ZN3std2rt19lang_start_internal17h6bc80da8df1b84a6E+0x13f>
    68ca:	ff 15 b8 eb 22 00    	callq  *0x22ebb8(%rip)        # 235488 <anon.9b5064fdb29a9e7094a0ea046004cc70.69.llvm.3377372267209290068>
    68d0:	48 85 c0             	test   %rax,%rax
    68d3:	0f 84 f1 00 00 00    	je     69ca <_ZN3std2rt19lang_start_internal17h6bc80da8df1b84a6E+0x21a>
    68d9:	48 89 c3             	mov    %rax,%rbx
    68dc:	48 83 38 01          	cmpq   $0x1,(%rax)
    68e0:	75 19                	jne    68fb <_ZN3std2rt19lang_start_internal17h6bc80da8df1b84a6E+0x14b>
    68e2:	48 89 d9             	mov    %rbx,%rcx
    68e5:	48 83 c1 08          	add    $0x8,%rcx
    68e9:	48 8b 43 08          	mov    0x8(%rbx),%rax
    68ed:	eb 24                	jmp    6913 <_ZN3std2rt19lang_start_internal17h6bc80da8df1b84a6E+0x163>
    68ef:	8b 44 24 30          	mov    0x30(%rsp),%eax
    68f3:	89 44 24 14          	mov    %eax,0x14(%rsp)
    68f7:	31 c0                	xor    %eax,%eax
    68f9:	eb 38                	jmp    6933 <_ZN3std2rt19lang_start_internal17h6bc80da8df1b84a6E+0x183>
    68fb:	ff 15 8f eb 22 00    	callq  *0x22eb8f(%rip)        # 235490 <anon.9b5064fdb29a9e7094a0ea046004cc70.69.llvm.3377372267209290068+0x8>
    6901:	48 89 d9             	mov    %rbx,%rcx
    6904:	48 83 c1 08          	add    $0x8,%rcx
    6908:	48 c7 03 01 00 00 00 	movq   $0x1,(%rbx)
    690f:	48 89 43 08          	mov    %rax,0x8(%rbx)
    6913:	48 83 c0 ff          	add    $0xffffffffffffffff,%rax
    6917:	48 89 01             	mov    %rax,(%rcx)
    691a:	48 8b 44 24 48       	mov    0x48(%rsp),%rax
    691f:	48 8b 4c 24 08       	mov    0x8(%rsp),%rcx
    6924:	48 89 44 24 18       	mov    %rax,0x18(%rsp)
    6929:	48 89 4c 24 20       	mov    %rcx,0x20(%rsp)
    692e:	b8 01 00 00 00       	mov    $0x1,%eax
    6933:	89 44 24 10          	mov    %eax,0x10(%rsp)
    6937:	48 8b 05 22 08 23 00 	mov    0x230822(%rip),%rax        # 237160 <_ZN3std10sys_common7cleanup7CLEANUP17he2b40641c12c3ab2E.llvm.3377372267209290068>
    693e:	48 83 f8 03          	cmp    $0x3,%rax
    6942:	74 24                	je     6968 <_ZN3std2rt19lang_start_internal17h6bc80da8df1b84a6E+0x1b8>
    6944:	c6 44 24 08 01       	movb   $0x1,0x8(%rsp)
    6949:	4c 89 74 24 30       	mov    %r14,0x30(%rsp)
    694e:	48 8d 3d 0b 08 23 00 	lea    0x23080b(%rip),%rdi        # 237160 <_ZN3std10sys_common7cleanup7CLEANUP17he2b40641c12c3ab2E.llvm.3377372267209290068>
    6955:	48 8d 0d 3c e8 22 00 	lea    0x22e83c(%rip),%rcx        # 235198 <anon.f22795adb11b38bcdf733fb31d7a129d.31.llvm.17977407982808465354>
    695c:	48 8d 54 24 30       	lea    0x30(%rsp),%rdx
    6961:	31 f6                	xor    %esi,%esi
    6963:	e8 58 4c 00 00       	callq  b5c0 <_ZN3std4sync4once4Once10call_inner17h3dcb8a4b38e403ceE>
    6968:	8b 44 24 10          	mov    0x10(%rsp),%eax
    696c:	4c 8b 74 24 18       	mov    0x18(%rsp),%r14
    6971:	48 8b 5c 24 20       	mov    0x20(%rsp),%rbx
    6976:	bd 65 00 00 00       	mov    $0x65,%ebp
    697b:	83 f8 01             	cmp    $0x1,%eax
    697e:	74 04                	je     6984 <_ZN3std2rt19lang_start_internal17h6bc80da8df1b84a6E+0x1d4>
    6980:	8b 6c 24 14          	mov    0x14(%rsp),%ebp
    6984:	85 c0                	test   %eax,%eax
    6986:	74 1a                	je     69a2 <_ZN3std2rt19lang_start_internal17h6bc80da8df1b84a6E+0x1f2>
    6988:	4c 89 f7             	mov    %r14,%rdi
    698b:	ff 13                	callq  *(%rbx)
    698d:	48 8b 73 08          	mov    0x8(%rbx),%rsi
    6991:	48 85 f6             	test   %rsi,%rsi
    6994:	74 0c                	je     69a2 <_ZN3std2rt19lang_start_internal17h6bc80da8df1b84a6E+0x1f2>
    6996:	48 8b 53 10          	mov    0x10(%rbx),%rdx
    699a:	4c 89 f7             	mov    %r14,%rdi
    699d:	e8 9e ec ff ff       	callq  5640 <__rust_dealloc>
    69a2:	48 63 c5             	movslq %ebp,%rax
    69a5:	48 83 c4 78          	add    $0x78,%rsp
    69a9:	5b                   	pop    %rbx
    69aa:	41 5e                	pop    %r14
    69ac:	41 5f                	pop    %r15
    69ae:	5d                   	pop    %rbp
    69af:	c3                   	retq   
    69b0:	48 8d 3d 9f 27 02 00 	lea    0x2279f(%rip),%rdi        # 29156 <anon.50c2b24cddb486cf6786674d7d35cccc.62.llvm.8550937387523375365>
    69b7:	48 8d 15 fa e8 22 00 	lea    0x22e8fa(%rip),%rdx        # 2352b8 <anon.50c2b24cddb486cf6786674d7d35cccc.61.llvm.8550937387523375365>
    69be:	be 47 00 00 00       	mov    $0x47,%esi
    69c3:	e8 e8 a4 00 00       	callq  10eb0 <_ZN3std9panicking11begin_panic17h3fab149413f14cb5E>
    69c8:	0f 0b                	ud2    
    69ca:	48 8d 3d d3 10 02 00 	lea    0x210d3(%rip),%rdi        # 27aa4 <anon.78f50b2a9983f639e2dd91abb5d41b13.19.llvm.5172323082184763200>
    69d1:	be 39 00 00 00       	mov    $0x39,%esi
    69d6:	e8 45 8e 00 00       	callq  f820 <_ZN4core6result13unwrap_failed17h3baac628203da239E>
    69db:	0f 0b                	ud2    
    69dd:	49 89 c7             	mov    %rax,%r15
    69e0:	48 8d 7c 24 10       	lea    0x10(%rsp),%rdi
    69e5:	e8 c6 ed ff ff       	callq  57b0 <_ZN4core3ptr13drop_in_place17hd794cd30e8c0bac9E>
    69ea:	eb 1d                	jmp    6a09 <_ZN3std2rt19lang_start_internal17h6bc80da8df1b84a6E+0x259>
    69ec:	49 89 c7             	mov    %rax,%r15
    69ef:	4c 89 f7             	mov    %r14,%rdi
    69f2:	48 89 de             	mov    %rbx,%rsi
    69f5:	e8 66 f0 ff ff       	callq  5a60 <_ZN5alloc5alloc8box_free17h74d69fd88824a794E>
    69fa:	eb 0d                	jmp    6a09 <_ZN3std2rt19lang_start_internal17h6bc80da8df1b84a6E+0x259>
    69fc:	49 89 c7             	mov    %rax,%r15
    69ff:	48 8d 7c 24 08       	lea    0x8(%rsp),%rdi
    6a04:	e8 87 ed ff ff       	callq  5790 <_ZN4core3ptr13drop_in_place17hc30bd391b96fd625E>
    6a09:	4c 89 ff             	mov    %r15,%rdi
    6a0c:	e8 2f d4 ff ff       	callq  3e40 <_Unwind_Resume@plt>
    6a11:	0f 0b                	ud2    
    6a13:	66 2e 0f 1f 84 00 00 	nopw   %cs:0x0(%rax,%rax,1)
    6a1a:	00 00 00 
    6a1d:	0f 1f 00             	nopl   (%rax)

0000000000006a20 <_ZN3std10sys_common11thread_info11THREAD_INFO6__init17h75cd8de13028caf6E>:
    6a20:	48 c7 07 00 00 00 00 	movq   $0x0,(%rdi)
    6a27:	48 c7 47 08 02 00 00 	movq   $0x2,0x8(%rdi)
    6a2e:	00 
    6a2f:	48 89 f8             	mov    %rdi,%rax
    6a32:	c3                   	retq   
    6a33:	66 2e 0f 1f 84 00 00 	nopw   %cs:0x0(%rax,%rax,1)
    6a3a:	00 00 00 
    6a3d:	0f 1f 00             	nopl   (%rax)

0000000000006a40 <_ZN3std10sys_common11thread_info11THREAD_INFO7__getit17h6d26b131856ad498E>:
    6a40:	53                   	push   %rbx
    6a41:	66 66 66 64 48 8b 04 	data16 data16 data16 mov %fs:0x0,%rax
    6a48:	25 00 00 00 00 
    6a4d:	80 b8 69 ff ff ff 00 	cmpb   $0x0,-0x97(%rax)
    6a54:	74 04                	je     6a5a <_ZN3std10sys_common11thread_info11THREAD_INFO7__getit17h6d26b131856ad498E+0x1a>
    6a56:	31 c0                	xor    %eax,%eax
    6a58:	5b                   	pop    %rbx
    6a59:	c3                   	retq   
    6a5a:	48 89 c3             	mov    %rax,%rbx
    6a5d:	80 bb 68 ff ff ff 00 	cmpb   $0x0,-0x98(%rbx)
    6a64:	74 09                	je     6a6f <_ZN3std10sys_common11thread_info11THREAD_INFO7__getit17h6d26b131856ad498E+0x2f>
    6a66:	48 8d 80 40 ff ff ff 	lea    -0xc0(%rax),%rax
    6a6d:	5b                   	pop    %rbx
    6a6e:	c3                   	retq   
    6a6f:	48 83 3d 41 05 23 00 	cmpq   $0x0,0x230541(%rip)        # 236fb8 <__cxa_thread_atexit_impl@GLIBC_2.18>
    6a76:	00 
    6a77:	74 1c                	je     6a95 <_ZN3std10sys_common11thread_info11THREAD_INFO7__getit17h6d26b131856ad498E+0x55>
    6a79:	48 8d b3 40 ff ff ff 	lea    -0xc0(%rbx),%rsi
    6a80:	48 8d 3d 69 46 00 00 	lea    0x4669(%rip),%rdi        # b0f0 <_ZN3std6thread5local4fast13destroy_value17h4813e576afa19a28E.llvm.17977407982808465354>
    6a87:	48 8d 15 82 05 23 00 	lea    0x230582(%rip),%rdx        # 237010 <_rust_extern_with_linkage___dso_handle.llvm.13870965413749014346>
    6a8e:	e8 ed d3 ff ff       	callq  3e80 <__cxa_thread_atexit_impl@plt>
    6a93:	eb 13                	jmp    6aa8 <_ZN3std10sys_common11thread_info11THREAD_INFO7__getit17h6d26b131856ad498E+0x68>
    6a95:	48 8d bb 40 ff ff ff 	lea    -0xc0(%rbx),%rdi
    6a9c:	48 8d 35 4d 46 00 00 	lea    0x464d(%rip),%rsi        # b0f0 <_ZN3std6thread5local4fast13destroy_value17h4813e576afa19a28E.llvm.17977407982808465354>
    6aa3:	e8 f8 2d 00 00       	callq  98a0 <_ZN3std10sys_common12thread_local22register_dtor_fallback17h291db34e7514dcd0E>
    6aa8:	c6 83 68 ff ff ff 01 	movb   $0x1,-0x98(%rbx)
    6aaf:	48 8d 83 40 ff ff ff 	lea    -0xc0(%rbx),%rax
    6ab6:	5b                   	pop    %rbx
    6ab7:	c3                   	retq   
    6ab8:	0f 1f 84 00 00 00 00 	nopl   0x0(%rax,%rax,1)
    6abf:	00 

0000000000006ac0 <_ZN4core3fmt5Write10write_char17h63ee3ff357d36232E>:
    6ac0:	53                   	push   %rbx
    6ac1:	48 83 ec 30          	sub    $0x30,%rsp
    6ac5:	48 89 fb             	mov    %rdi,%rbx
    6ac8:	c7 44 24 0c 00 00 00 	movl   $0x0,0xc(%rsp)
    6acf:	00 
    6ad0:	83 fe 7f             	cmp    $0x7f,%esi
    6ad3:	77 0f                	ja     6ae4 <_ZN4core3fmt5Write10write_char17h63ee3ff357d36232E+0x24>
    6ad5:	40 88 74 24 0c       	mov    %sil,0xc(%rsp)
    6ada:	b9 01 00 00 00       	mov    $0x1,%ecx
    6adf:	e9 92 00 00 00       	jmpq   6b76 <_ZN4core3fmt5Write10write_char17h63ee3ff357d36232E+0xb6>
    6ae4:	89 f0                	mov    %esi,%eax
    6ae6:	81 fe ff 07 00 00    	cmp    $0x7ff,%esi
    6aec:	77 1f                	ja     6b0d <_ZN4core3fmt5Write10write_char17h63ee3ff357d36232E+0x4d>
    6aee:	c1 e8 06             	shr    $0x6,%eax
    6af1:	24 1f                	and    $0x1f,%al
    6af3:	0c c0                	or     $0xc0,%al
    6af5:	88 44 24 0c          	mov    %al,0xc(%rsp)
    6af9:	40 80 e6 3f          	and    $0x3f,%sil
    6afd:	40 80 ce 80          	or     $0x80,%sil
    6b01:	40 88 74 24 0d       	mov    %sil,0xd(%rsp)
    6b06:	b9 02 00 00 00       	mov    $0x2,%ecx
    6b0b:	eb 69                	jmp    6b76 <_ZN4core3fmt5Write10write_char17h63ee3ff357d36232E+0xb6>
    6b0d:	81 fe ff ff 00 00    	cmp    $0xffff,%esi
    6b13:	77 2c                	ja     6b41 <_ZN4core3fmt5Write10write_char17h63ee3ff357d36232E+0x81>
    6b15:	c1 e8 0c             	shr    $0xc,%eax
    6b18:	24 0f                	and    $0xf,%al
    6b1a:	0c e0                	or     $0xe0,%al
    6b1c:	88 44 24 0c          	mov    %al,0xc(%rsp)
    6b20:	89 f0                	mov    %esi,%eax
    6b22:	c1 e8 06             	shr    $0x6,%eax
    6b25:	24 3f                	and    $0x3f,%al
    6b27:	0c 80                	or     $0x80,%al
    6b29:	88 44 24 0d          	mov    %al,0xd(%rsp)
    6b2d:	40 80 e6 3f          	and    $0x3f,%sil
    6b31:	40 80 ce 80          	or     $0x80,%sil
    6b35:	40 88 74 24 0e       	mov    %sil,0xe(%rsp)
    6b3a:	b9 03 00 00 00       	mov    $0x3,%ecx
    6b3f:	eb 35                	jmp    6b76 <_ZN4core3fmt5Write10write_char17h63ee3ff357d36232E+0xb6>
    6b41:	c1 e8 12             	shr    $0x12,%eax
    6b44:	0c f0                	or     $0xf0,%al
    6b46:	88 44 24 0c          	mov    %al,0xc(%rsp)
    6b4a:	89 f0                	mov    %esi,%eax
    6b4c:	c1 e8 0c             	shr    $0xc,%eax
    6b4f:	24 3f                	and    $0x3f,%al
    6b51:	0c 80                	or     $0x80,%al
    6b53:	88 44 24 0d          	mov    %al,0xd(%rsp)
    6b57:	89 f0                	mov    %esi,%eax
    6b59:	c1 e8 06             	shr    $0x6,%eax
    6b5c:	24 3f                	and    $0x3f,%al
    6b5e:	0c 80                	or     $0x80,%al
    6b60:	88 44 24 0e          	mov    %al,0xe(%rsp)
    6b64:	40 80 e6 3f          	and    $0x3f,%sil
    6b68:	40 80 ce 80          	or     $0x80,%sil
    6b6c:	40 88 74 24 0f       	mov    %sil,0xf(%rsp)
    6b71:	b9 04 00 00 00       	mov    $0x4,%ecx
    6b76:	48 8b 33             	mov    (%rbx),%rsi
    6b79:	48 8d 7c 24 20       	lea    0x20(%rsp),%rdi
    6b7e:	48 8d 54 24 0c       	lea    0xc(%rsp),%rdx
    6b83:	e8 38 19 00 00       	callq  84c0 <_ZN3std2io5Write9write_all17h96277aaeed5f7a02E>
    6b88:	80 7c 24 20 03       	cmpb   $0x3,0x20(%rsp)
    6b8d:	75 04                	jne    6b93 <_ZN4core3fmt5Write10write_char17h63ee3ff357d36232E+0xd3>
    6b8f:	31 c0                	xor    %eax,%eax
    6b91:	eb 26                	jmp    6bb9 <_ZN4core3fmt5Write10write_char17h63ee3ff357d36232E+0xf9>
    6b93:	0f 10 44 24 20       	movups 0x20(%rsp),%xmm0
    6b98:	0f 29 44 24 10       	movaps %xmm0,0x10(%rsp)
    6b9d:	80 7b 08 03          	cmpb   $0x3,0x8(%rbx)
    6ba1:	48 8d 5b 08          	lea    0x8(%rbx),%rbx
    6ba5:	74 08                	je     6baf <_ZN4core3fmt5Write10write_char17h63ee3ff357d36232E+0xef>
    6ba7:	48 89 df             	mov    %rbx,%rdi
    6baa:	e8 e1 01 00 00       	callq  6d90 <_ZN4core3ptr13drop_in_place17h913f9cf9e1d457c8E.llvm.13870965413749014346>
    6baf:	0f 28 44 24 10       	movaps 0x10(%rsp),%xmm0
    6bb4:	0f 11 03             	movups %xmm0,(%rbx)
    6bb7:	b0 01                	mov    $0x1,%al
    6bb9:	48 83 c4 30          	add    $0x30,%rsp
    6bbd:	5b                   	pop    %rbx
    6bbe:	c3                   	retq   
    6bbf:	0f 28 44 24 10       	movaps 0x10(%rsp),%xmm0
    6bc4:	0f 11 03             	movups %xmm0,(%rbx)
    6bc7:	48 89 c7             	mov    %rax,%rdi
    6bca:	e8 71 d2 ff ff       	callq  3e40 <_Unwind_Resume@plt>
    6bcf:	0f 0b                	ud2    
    6bd1:	66 2e 0f 1f 84 00 00 	nopw   %cs:0x0(%rax,%rax,1)
    6bd8:	00 00 00 
    6bdb:	0f 1f 44 00 00       	nopl   0x0(%rax,%rax,1)

0000000000006be0 <_ZN4core3fmt5Write10write_char17hbb3146c31c2bd8f1E>:
    6be0:	53                   	push   %rbx
    6be1:	48 83 ec 30          	sub    $0x30,%rsp
    6be5:	48 89 fb             	mov    %rdi,%rbx
    6be8:	c7 44 24 0c 00 00 00 	movl   $0x0,0xc(%rsp)
    6bef:	00 
    6bf0:	83 fe 7f             	cmp    $0x7f,%esi
    6bf3:	77 0f                	ja     6c04 <_ZN4core3fmt5Write10write_char17hbb3146c31c2bd8f1E+0x24>
    6bf5:	40 88 74 24 0c       	mov    %sil,0xc(%rsp)
    6bfa:	b9 01 00 00 00       	mov    $0x1,%ecx
    6bff:	e9 92 00 00 00       	jmpq   6c96 <_ZN4core3fmt5Write10write_char17hbb3146c31c2bd8f1E+0xb6>
    6c04:	89 f0                	mov    %esi,%eax
    6c06:	81 fe ff 07 00 00    	cmp    $0x7ff,%esi
    6c0c:	77 1f                	ja     6c2d <_ZN4core3fmt5Write10write_char17hbb3146c31c2bd8f1E+0x4d>
    6c0e:	c1 e8 06             	shr    $0x6,%eax
    6c11:	24 1f                	and    $0x1f,%al
    6c13:	0c c0                	or     $0xc0,%al
    6c15:	88 44 24 0c          	mov    %al,0xc(%rsp)
    6c19:	40 80 e6 3f          	and    $0x3f,%sil
    6c1d:	40 80 ce 80          	or     $0x80,%sil
    6c21:	40 88 74 24 0d       	mov    %sil,0xd(%rsp)
    6c26:	b9 02 00 00 00       	mov    $0x2,%ecx
    6c2b:	eb 69                	jmp    6c96 <_ZN4core3fmt5Write10write_char17hbb3146c31c2bd8f1E+0xb6>
    6c2d:	81 fe ff ff 00 00    	cmp    $0xffff,%esi
    6c33:	77 2c                	ja     6c61 <_ZN4core3fmt5Write10write_char17hbb3146c31c2bd8f1E+0x81>
    6c35:	c1 e8 0c             	shr    $0xc,%eax
    6c38:	24 0f                	and    $0xf,%al
    6c3a:	0c e0                	or     $0xe0,%al
    6c3c:	88 44 24 0c          	mov    %al,0xc(%rsp)
    6c40:	89 f0                	mov    %esi,%eax
    6c42:	c1 e8 06             	shr    $0x6,%eax
    6c45:	24 3f                	and    $0x3f,%al
    6c47:	0c 80                	or     $0x80,%al
    6c49:	88 44 24 0d          	mov    %al,0xd(%rsp)
    6c4d:	40 80 e6 3f          	and    $0x3f,%sil
    6c51:	40 80 ce 80          	or     $0x80,%sil
    6c55:	40 88 74 24 0e       	mov    %sil,0xe(%rsp)
    6c5a:	b9 03 00 00 00       	mov    $0x3,%ecx
    6c5f:	eb 35                	jmp    6c96 <_ZN4core3fmt5Write10write_char17hbb3146c31c2bd8f1E+0xb6>
    6c61:	c1 e8 12             	shr    $0x12,%eax
    6c64:	0c f0                	or     $0xf0,%al
    6c66:	88 44 24 0c          	mov    %al,0xc(%rsp)
    6c6a:	89 f0                	mov    %esi,%eax
    6c6c:	c1 e8 0c             	shr    $0xc,%eax
    6c6f:	24 3f                	and    $0x3f,%al
    6c71:	0c 80                	or     $0x80,%al
    6c73:	88 44 24 0d          	mov    %al,0xd(%rsp)
    6c77:	89 f0                	mov    %esi,%eax
    6c79:	c1 e8 06             	shr    $0x6,%eax
    6c7c:	24 3f                	and    $0x3f,%al
    6c7e:	0c 80                	or     $0x80,%al
    6c80:	88 44 24 0e          	mov    %al,0xe(%rsp)
    6c84:	40 80 e6 3f          	and    $0x3f,%sil
    6c88:	40 80 ce 80          	or     $0x80,%sil
    6c8c:	40 88 74 24 0f       	mov    %sil,0xf(%rsp)
    6c91:	b9 04 00 00 00       	mov    $0x4,%ecx
    6c96:	48 8b 33             	mov    (%rbx),%rsi
    6c99:	48 8d 7c 24 20       	lea    0x20(%rsp),%rdi
    6c9e:	48 8d 54 24 0c       	lea    0xc(%rsp),%rdx
    6ca3:	e8 a8 45 00 00       	callq  b250 <_ZN3std2io5Write9write_all17hb9623f3be4c5b3bfE>
    6ca8:	80 7c 24 20 03       	cmpb   $0x3,0x20(%rsp)
    6cad:	75 04                	jne    6cb3 <_ZN4core3fmt5Write10write_char17hbb3146c31c2bd8f1E+0xd3>
    6caf:	31 c0                	xor    %eax,%eax
    6cb1:	eb 26                	jmp    6cd9 <_ZN4core3fmt5Write10write_char17hbb3146c31c2bd8f1E+0xf9>
    6cb3:	0f 10 44 24 20       	movups 0x20(%rsp),%xmm0
    6cb8:	0f 29 44 24 10       	movaps %xmm0,0x10(%rsp)
    6cbd:	80 7b 08 03          	cmpb   $0x3,0x8(%rbx)
    6cc1:	48 8d 5b 08          	lea    0x8(%rbx),%rbx
    6cc5:	74 08                	je     6ccf <_ZN4core3fmt5Write10write_char17hbb3146c31c2bd8f1E+0xef>
    6cc7:	48 89 df             	mov    %rbx,%rdi
    6cca:	e8 c1 00 00 00       	callq  6d90 <_ZN4core3ptr13drop_in_place17h913f9cf9e1d457c8E.llvm.13870965413749014346>
    6ccf:	0f 28 44 24 10       	movaps 0x10(%rsp),%xmm0
    6cd4:	0f 11 03             	movups %xmm0,(%rbx)
    6cd7:	b0 01                	mov    $0x1,%al
    6cd9:	48 83 c4 30          	add    $0x30,%rsp
    6cdd:	5b                   	pop    %rbx
    6cde:	c3                   	retq   
    6cdf:	0f 28 44 24 10       	movaps 0x10(%rsp),%xmm0
    6ce4:	0f 11 03             	movups %xmm0,(%rbx)
    6ce7:	48 89 c7             	mov    %rax,%rdi
    6cea:	e8 51 d1 ff ff       	callq  3e40 <_Unwind_Resume@plt>
    6cef:	0f 0b                	ud2    
    6cf1:	66 2e 0f 1f 84 00 00 	nopw   %cs:0x0(%rax,%rax,1)
    6cf8:	00 00 00 
    6cfb:	0f 1f 44 00 00       	nopl   0x0(%rax,%rax,1)

0000000000006d00 <_ZN4core3fmt5Write9write_fmt17h2209de426dca3cb9E>:
    6d00:	48 83 ec 48          	sub    $0x48,%rsp
    6d04:	48 89 7c 24 08       	mov    %rdi,0x8(%rsp)
    6d09:	0f 10 06             	movups (%rsi),%xmm0
    6d0c:	0f 10 4e 10          	movups 0x10(%rsi),%xmm1
    6d10:	0f 10 56 20          	movups 0x20(%rsi),%xmm2
    6d14:	0f 29 54 24 30       	movaps %xmm2,0x30(%rsp)
    6d19:	0f 29 4c 24 20       	movaps %xmm1,0x20(%rsp)
    6d1e:	0f 29 44 24 10       	movaps %xmm0,0x10(%rsp)
    6d23:	48 8d 35 66 df 22 00 	lea    0x22df66(%rip),%rsi        # 234c90 <anon.d1524665a986ace7e27b3430087f173a.1.llvm.13870965413749014346>
    6d2a:	48 8d 7c 24 08       	lea    0x8(%rsp),%rdi
    6d2f:	48 8d 54 24 10       	lea    0x10(%rsp),%rdx
    6d34:	e8 07 d7 01 00       	callq  24440 <_ZN4core3fmt5write17h55e323aea9a5cd4eE>
    6d39:	48 83 c4 48          	add    $0x48,%rsp
    6d3d:	c3                   	retq   
    6d3e:	66 90                	xchg   %ax,%ax

0000000000006d40 <_ZN4core3fmt5Write9write_fmt17hab74ae58d332fbb3E>:
    6d40:	48 83 ec 48          	sub    $0x48,%rsp
    6d44:	48 89 7c 24 08       	mov    %rdi,0x8(%rsp)
    6d49:	0f 10 06             	movups (%rsi),%xmm0
    6d4c:	0f 10 4e 10          	movups 0x10(%rsi),%xmm1
    6d50:	0f 10 56 20          	movups 0x20(%rsi),%xmm2
    6d54:	0f 29 54 24 30       	movaps %xmm2,0x30(%rsp)
    6d59:	0f 29 4c 24 20       	movaps %xmm1,0x20(%rsp)
    6d5e:	0f 29 44 24 10       	movaps %xmm0,0x10(%rsp)
    6d63:	48 8d 35 56 df 22 00 	lea    0x22df56(%rip),%rsi        # 234cc0 <anon.d1524665a986ace7e27b3430087f173a.2.llvm.13870965413749014346>
    6d6a:	48 8d 7c 24 08       	lea    0x8(%rsp),%rdi
    6d6f:	48 8d 54 24 10       	lea    0x10(%rsp),%rdx
    6d74:	e8 c7 d6 01 00       	callq  24440 <_ZN4core3fmt5write17h55e323aea9a5cd4eE>
    6d79:	48 83 c4 48          	add    $0x48,%rsp
    6d7d:	c3                   	retq   
    6d7e:	66 90                	xchg   %ax,%ax

0000000000006d80 <_ZN4core3ptr13drop_in_place17h35cb152dfb9e049cE>:
    6d80:	c3                   	retq   
    6d81:	66 2e 0f 1f 84 00 00 	nopw   %cs:0x0(%rax,%rax,1)
    6d88:	00 00 00 
